
Drivers.elf:     file format elf32-avr

Sections:
Idx Name          Size      VMA       LMA       File off  Algn
  0 .text         0000118e  00000000  00000000  00000074  2**1
                  CONTENTS, ALLOC, LOAD, READONLY, CODE
  1 .data         0000010a  00800060  0000118e  00001202  2**0
                  CONTENTS, ALLOC, LOAD, DATA
  2 .debug_aranges 00000120  00000000  00000000  0000130c  2**0
                  CONTENTS, READONLY, DEBUGGING
  3 .debug_pubnames 00000145  00000000  00000000  0000142c  2**0
                  CONTENTS, READONLY, DEBUGGING
  4 .debug_info   0000148a  00000000  00000000  00001571  2**0
                  CONTENTS, READONLY, DEBUGGING
  5 .debug_abbrev 00000c2a  00000000  00000000  000029fb  2**0
                  CONTENTS, READONLY, DEBUGGING
  6 .debug_line   00000a0e  00000000  00000000  00003625  2**0
                  CONTENTS, READONLY, DEBUGGING
  7 .debug_frame  00000120  00000000  00000000  00004034  2**2
                  CONTENTS, READONLY, DEBUGGING
  8 .debug_str    00000241  00000000  00000000  00004154  2**0
                  CONTENTS, READONLY, DEBUGGING
  9 .debug_loc    0000047a  00000000  00000000  00004395  2**0
                  CONTENTS, READONLY, DEBUGGING

Disassembly of section .text:

00000000 <__vectors>:
       0:	0c 94 2a 00 	jmp	0x54	; 0x54 <__ctors_end>
       4:	0c 94 3f 00 	jmp	0x7e	; 0x7e <__bad_interrupt>
       8:	0c 94 3f 00 	jmp	0x7e	; 0x7e <__bad_interrupt>
       c:	0c 94 3f 00 	jmp	0x7e	; 0x7e <__bad_interrupt>
      10:	0c 94 3f 00 	jmp	0x7e	; 0x7e <__bad_interrupt>
      14:	0c 94 3f 00 	jmp	0x7e	; 0x7e <__bad_interrupt>
      18:	0c 94 3f 00 	jmp	0x7e	; 0x7e <__bad_interrupt>
      1c:	0c 94 3f 00 	jmp	0x7e	; 0x7e <__bad_interrupt>
      20:	0c 94 3f 00 	jmp	0x7e	; 0x7e <__bad_interrupt>
      24:	0c 94 3f 00 	jmp	0x7e	; 0x7e <__bad_interrupt>
      28:	0c 94 3f 00 	jmp	0x7e	; 0x7e <__bad_interrupt>
      2c:	0c 94 3f 00 	jmp	0x7e	; 0x7e <__bad_interrupt>
      30:	0c 94 3f 00 	jmp	0x7e	; 0x7e <__bad_interrupt>
      34:	0c 94 3f 00 	jmp	0x7e	; 0x7e <__bad_interrupt>
      38:	0c 94 3f 00 	jmp	0x7e	; 0x7e <__bad_interrupt>
      3c:	0c 94 3f 00 	jmp	0x7e	; 0x7e <__bad_interrupt>
      40:	0c 94 6f 06 	jmp	0xcde	; 0xcde <__vector_16>
      44:	0c 94 3f 00 	jmp	0x7e	; 0x7e <__bad_interrupt>
      48:	0c 94 3f 00 	jmp	0x7e	; 0x7e <__bad_interrupt>
      4c:	0c 94 3f 00 	jmp	0x7e	; 0x7e <__bad_interrupt>
      50:	0c 94 3f 00 	jmp	0x7e	; 0x7e <__bad_interrupt>

00000054 <__ctors_end>:
      54:	11 24       	eor	r1, r1
      56:	1f be       	out	0x3f, r1	; 63
      58:	cf e5       	ldi	r28, 0x5F	; 95
      5a:	d8 e0       	ldi	r29, 0x08	; 8
      5c:	de bf       	out	0x3e, r29	; 62
      5e:	cd bf       	out	0x3d, r28	; 61

00000060 <__do_copy_data>:
      60:	11 e0       	ldi	r17, 0x01	; 1
      62:	a0 e6       	ldi	r26, 0x60	; 96
      64:	b0 e0       	ldi	r27, 0x00	; 0
      66:	ee e8       	ldi	r30, 0x8E	; 142
      68:	f1 e1       	ldi	r31, 0x11	; 17
      6a:	02 c0       	rjmp	.+4      	; 0x70 <.do_copy_data_start>

0000006c <.do_copy_data_loop>:
      6c:	05 90       	lpm	r0, Z+
      6e:	0d 92       	st	X+, r0

00000070 <.do_copy_data_start>:
      70:	aa 36       	cpi	r26, 0x6A	; 106
      72:	b1 07       	cpc	r27, r17
      74:	d9 f7       	brne	.-10     	; 0x6c <.do_copy_data_loop>
      76:	0e 94 0f 08 	call	0x101e	; 0x101e <main>
      7a:	0c 94 c5 08 	jmp	0x118a	; 0x118a <_exit>

0000007e <__bad_interrupt>:
      7e:	0c 94 00 00 	jmp	0	; 0x0 <__vectors>

00000082 <__nesf2>:
      82:	a8 e1       	ldi	r26, 0x18	; 24
      84:	b0 e0       	ldi	r27, 0x00	; 0
      86:	e7 e4       	ldi	r30, 0x47	; 71
      88:	f0 e0       	ldi	r31, 0x00	; 0
      8a:	0c 94 9a 08 	jmp	0x1134	; 0x1134 <__prologue_saves__+0x18>
      8e:	69 83       	std	Y+1, r22	; 0x01
      90:	7a 83       	std	Y+2, r23	; 0x02
      92:	8b 83       	std	Y+3, r24	; 0x03
      94:	9c 83       	std	Y+4, r25	; 0x04
      96:	2d 83       	std	Y+5, r18	; 0x05
      98:	3e 83       	std	Y+6, r19	; 0x06
      9a:	4f 83       	std	Y+7, r20	; 0x07
      9c:	58 87       	std	Y+8, r21	; 0x08
      9e:	89 e0       	ldi	r24, 0x09	; 9
      a0:	e8 2e       	mov	r14, r24
      a2:	f1 2c       	mov	r15, r1
      a4:	ec 0e       	add	r14, r28
      a6:	fd 1e       	adc	r15, r29
      a8:	ce 01       	movw	r24, r28
      aa:	01 96       	adiw	r24, 0x01	; 1
      ac:	b7 01       	movw	r22, r14
      ae:	0e 94 cc 02 	call	0x598	; 0x598 <__unpack_f>
      b2:	8e 01       	movw	r16, r28
      b4:	0f 5e       	subi	r16, 0xEF	; 239
      b6:	1f 4f       	sbci	r17, 0xFF	; 255
      b8:	ce 01       	movw	r24, r28
      ba:	05 96       	adiw	r24, 0x05	; 5
      bc:	b8 01       	movw	r22, r16
      be:	0e 94 cc 02 	call	0x598	; 0x598 <__unpack_f>
      c2:	89 85       	ldd	r24, Y+9	; 0x09
      c4:	82 30       	cpi	r24, 0x02	; 2
      c6:	40 f0       	brcs	.+16     	; 0xd8 <__nesf2+0x56>
      c8:	89 89       	ldd	r24, Y+17	; 0x11
      ca:	82 30       	cpi	r24, 0x02	; 2
      cc:	28 f0       	brcs	.+10     	; 0xd8 <__nesf2+0x56>
      ce:	c7 01       	movw	r24, r14
      d0:	b8 01       	movw	r22, r16
      d2:	0e 94 44 03 	call	0x688	; 0x688 <__fpcmp_parts_f>
      d6:	01 c0       	rjmp	.+2      	; 0xda <__nesf2+0x58>
      d8:	81 e0       	ldi	r24, 0x01	; 1
      da:	68 96       	adiw	r28, 0x18	; 24
      dc:	e6 e0       	ldi	r30, 0x06	; 6
      de:	0c 94 b6 08 	jmp	0x116c	; 0x116c <__epilogue_restores__+0x18>

000000e2 <__gesf2>:
      e2:	a8 e1       	ldi	r26, 0x18	; 24
      e4:	b0 e0       	ldi	r27, 0x00	; 0
      e6:	e7 e7       	ldi	r30, 0x77	; 119
      e8:	f0 e0       	ldi	r31, 0x00	; 0
      ea:	0c 94 9a 08 	jmp	0x1134	; 0x1134 <__prologue_saves__+0x18>
      ee:	69 83       	std	Y+1, r22	; 0x01
      f0:	7a 83       	std	Y+2, r23	; 0x02
      f2:	8b 83       	std	Y+3, r24	; 0x03
      f4:	9c 83       	std	Y+4, r25	; 0x04
      f6:	2d 83       	std	Y+5, r18	; 0x05
      f8:	3e 83       	std	Y+6, r19	; 0x06
      fa:	4f 83       	std	Y+7, r20	; 0x07
      fc:	58 87       	std	Y+8, r21	; 0x08
      fe:	89 e0       	ldi	r24, 0x09	; 9
     100:	e8 2e       	mov	r14, r24
     102:	f1 2c       	mov	r15, r1
     104:	ec 0e       	add	r14, r28
     106:	fd 1e       	adc	r15, r29
     108:	ce 01       	movw	r24, r28
     10a:	01 96       	adiw	r24, 0x01	; 1
     10c:	b7 01       	movw	r22, r14
     10e:	0e 94 cc 02 	call	0x598	; 0x598 <__unpack_f>
     112:	8e 01       	movw	r16, r28
     114:	0f 5e       	subi	r16, 0xEF	; 239
     116:	1f 4f       	sbci	r17, 0xFF	; 255
     118:	ce 01       	movw	r24, r28
     11a:	05 96       	adiw	r24, 0x05	; 5
     11c:	b8 01       	movw	r22, r16
     11e:	0e 94 cc 02 	call	0x598	; 0x598 <__unpack_f>
     122:	89 85       	ldd	r24, Y+9	; 0x09
     124:	82 30       	cpi	r24, 0x02	; 2
     126:	40 f0       	brcs	.+16     	; 0x138 <__gesf2+0x56>
     128:	89 89       	ldd	r24, Y+17	; 0x11
     12a:	82 30       	cpi	r24, 0x02	; 2
     12c:	28 f0       	brcs	.+10     	; 0x138 <__gesf2+0x56>
     12e:	c7 01       	movw	r24, r14
     130:	b8 01       	movw	r22, r16
     132:	0e 94 44 03 	call	0x688	; 0x688 <__fpcmp_parts_f>
     136:	01 c0       	rjmp	.+2      	; 0x13a <__gesf2+0x58>
     138:	8f ef       	ldi	r24, 0xFF	; 255
     13a:	68 96       	adiw	r28, 0x18	; 24
     13c:	e6 e0       	ldi	r30, 0x06	; 6
     13e:	0c 94 b6 08 	jmp	0x116c	; 0x116c <__epilogue_restores__+0x18>

00000142 <__lesf2>:
     142:	a8 e1       	ldi	r26, 0x18	; 24
     144:	b0 e0       	ldi	r27, 0x00	; 0
     146:	e7 ea       	ldi	r30, 0xA7	; 167
     148:	f0 e0       	ldi	r31, 0x00	; 0
     14a:	0c 94 9a 08 	jmp	0x1134	; 0x1134 <__prologue_saves__+0x18>
     14e:	69 83       	std	Y+1, r22	; 0x01
     150:	7a 83       	std	Y+2, r23	; 0x02
     152:	8b 83       	std	Y+3, r24	; 0x03
     154:	9c 83       	std	Y+4, r25	; 0x04
     156:	2d 83       	std	Y+5, r18	; 0x05
     158:	3e 83       	std	Y+6, r19	; 0x06
     15a:	4f 83       	std	Y+7, r20	; 0x07
     15c:	58 87       	std	Y+8, r21	; 0x08
     15e:	89 e0       	ldi	r24, 0x09	; 9
     160:	e8 2e       	mov	r14, r24
     162:	f1 2c       	mov	r15, r1
     164:	ec 0e       	add	r14, r28
     166:	fd 1e       	adc	r15, r29
     168:	ce 01       	movw	r24, r28
     16a:	01 96       	adiw	r24, 0x01	; 1
     16c:	b7 01       	movw	r22, r14
     16e:	0e 94 cc 02 	call	0x598	; 0x598 <__unpack_f>
     172:	8e 01       	movw	r16, r28
     174:	0f 5e       	subi	r16, 0xEF	; 239
     176:	1f 4f       	sbci	r17, 0xFF	; 255
     178:	ce 01       	movw	r24, r28
     17a:	05 96       	adiw	r24, 0x05	; 5
     17c:	b8 01       	movw	r22, r16
     17e:	0e 94 cc 02 	call	0x598	; 0x598 <__unpack_f>
     182:	89 85       	ldd	r24, Y+9	; 0x09
     184:	82 30       	cpi	r24, 0x02	; 2
     186:	40 f0       	brcs	.+16     	; 0x198 <__lesf2+0x56>
     188:	89 89       	ldd	r24, Y+17	; 0x11
     18a:	82 30       	cpi	r24, 0x02	; 2
     18c:	28 f0       	brcs	.+10     	; 0x198 <__lesf2+0x56>
     18e:	c7 01       	movw	r24, r14
     190:	b8 01       	movw	r22, r16
     192:	0e 94 44 03 	call	0x688	; 0x688 <__fpcmp_parts_f>
     196:	01 c0       	rjmp	.+2      	; 0x19a <__lesf2+0x58>
     198:	81 e0       	ldi	r24, 0x01	; 1
     19a:	68 96       	adiw	r28, 0x18	; 24
     19c:	e6 e0       	ldi	r30, 0x06	; 6
     19e:	0c 94 b6 08 	jmp	0x116c	; 0x116c <__epilogue_restores__+0x18>

000001a2 <__floatsisf>:
     1a2:	a8 e0       	ldi	r26, 0x08	; 8
     1a4:	b0 e0       	ldi	r27, 0x00	; 0
     1a6:	e7 ed       	ldi	r30, 0xD7	; 215
     1a8:	f0 e0       	ldi	r31, 0x00	; 0
     1aa:	0c 94 97 08 	jmp	0x112e	; 0x112e <__prologue_saves__+0x12>
     1ae:	9b 01       	movw	r18, r22
     1b0:	ac 01       	movw	r20, r24
     1b2:	83 e0       	ldi	r24, 0x03	; 3
     1b4:	89 83       	std	Y+1, r24	; 0x01
     1b6:	da 01       	movw	r26, r20
     1b8:	c9 01       	movw	r24, r18
     1ba:	88 27       	eor	r24, r24
     1bc:	b7 fd       	sbrc	r27, 7
     1be:	83 95       	inc	r24
     1c0:	99 27       	eor	r25, r25
     1c2:	aa 27       	eor	r26, r26
     1c4:	bb 27       	eor	r27, r27
     1c6:	b8 2e       	mov	r11, r24
     1c8:	21 15       	cp	r18, r1
     1ca:	31 05       	cpc	r19, r1
     1cc:	41 05       	cpc	r20, r1
     1ce:	51 05       	cpc	r21, r1
     1d0:	19 f4       	brne	.+6      	; 0x1d8 <__floatsisf+0x36>
     1d2:	82 e0       	ldi	r24, 0x02	; 2
     1d4:	89 83       	std	Y+1, r24	; 0x01
     1d6:	3a c0       	rjmp	.+116    	; 0x24c <__floatsisf+0xaa>
     1d8:	88 23       	and	r24, r24
     1da:	a9 f0       	breq	.+42     	; 0x206 <__floatsisf+0x64>
     1dc:	20 30       	cpi	r18, 0x00	; 0
     1de:	80 e0       	ldi	r24, 0x00	; 0
     1e0:	38 07       	cpc	r19, r24
     1e2:	80 e0       	ldi	r24, 0x00	; 0
     1e4:	48 07       	cpc	r20, r24
     1e6:	80 e8       	ldi	r24, 0x80	; 128
     1e8:	58 07       	cpc	r21, r24
     1ea:	29 f4       	brne	.+10     	; 0x1f6 <__floatsisf+0x54>
     1ec:	60 e0       	ldi	r22, 0x00	; 0
     1ee:	70 e0       	ldi	r23, 0x00	; 0
     1f0:	80 e0       	ldi	r24, 0x00	; 0
     1f2:	9f ec       	ldi	r25, 0xCF	; 207
     1f4:	30 c0       	rjmp	.+96     	; 0x256 <__floatsisf+0xb4>
     1f6:	ee 24       	eor	r14, r14
     1f8:	ff 24       	eor	r15, r15
     1fa:	87 01       	movw	r16, r14
     1fc:	e2 1a       	sub	r14, r18
     1fe:	f3 0a       	sbc	r15, r19
     200:	04 0b       	sbc	r16, r20
     202:	15 0b       	sbc	r17, r21
     204:	02 c0       	rjmp	.+4      	; 0x20a <__floatsisf+0x68>
     206:	79 01       	movw	r14, r18
     208:	8a 01       	movw	r16, r20
     20a:	8e e1       	ldi	r24, 0x1E	; 30
     20c:	c8 2e       	mov	r12, r24
     20e:	d1 2c       	mov	r13, r1
     210:	dc 82       	std	Y+4, r13	; 0x04
     212:	cb 82       	std	Y+3, r12	; 0x03
     214:	ed 82       	std	Y+5, r14	; 0x05
     216:	fe 82       	std	Y+6, r15	; 0x06
     218:	0f 83       	std	Y+7, r16	; 0x07
     21a:	18 87       	std	Y+8, r17	; 0x08
     21c:	c8 01       	movw	r24, r16
     21e:	b7 01       	movw	r22, r14
     220:	0e 94 a8 01 	call	0x350	; 0x350 <__clzsi2>
     224:	01 97       	sbiw	r24, 0x01	; 1
     226:	18 16       	cp	r1, r24
     228:	19 06       	cpc	r1, r25
     22a:	84 f4       	brge	.+32     	; 0x24c <__floatsisf+0xaa>
     22c:	08 2e       	mov	r0, r24
     22e:	04 c0       	rjmp	.+8      	; 0x238 <__floatsisf+0x96>
     230:	ee 0c       	add	r14, r14
     232:	ff 1c       	adc	r15, r15
     234:	00 1f       	adc	r16, r16
     236:	11 1f       	adc	r17, r17
     238:	0a 94       	dec	r0
     23a:	d2 f7       	brpl	.-12     	; 0x230 <__floatsisf+0x8e>
     23c:	ed 82       	std	Y+5, r14	; 0x05
     23e:	fe 82       	std	Y+6, r15	; 0x06
     240:	0f 83       	std	Y+7, r16	; 0x07
     242:	18 87       	std	Y+8, r17	; 0x08
     244:	c8 1a       	sub	r12, r24
     246:	d9 0a       	sbc	r13, r25
     248:	dc 82       	std	Y+4, r13	; 0x04
     24a:	cb 82       	std	Y+3, r12	; 0x03
     24c:	ba 82       	std	Y+2, r11	; 0x02
     24e:	ce 01       	movw	r24, r28
     250:	01 96       	adiw	r24, 0x01	; 1
     252:	0e 94 f7 01 	call	0x3ee	; 0x3ee <__pack_f>
     256:	28 96       	adiw	r28, 0x08	; 8
     258:	e9 e0       	ldi	r30, 0x09	; 9
     25a:	0c 94 b3 08 	jmp	0x1166	; 0x1166 <__epilogue_restores__+0x12>

0000025e <__floatunsisf>:
     25e:	a8 e0       	ldi	r26, 0x08	; 8
     260:	b0 e0       	ldi	r27, 0x00	; 0
     262:	e5 e3       	ldi	r30, 0x35	; 53
     264:	f1 e0       	ldi	r31, 0x01	; 1
     266:	0c 94 96 08 	jmp	0x112c	; 0x112c <__prologue_saves__+0x10>
     26a:	7b 01       	movw	r14, r22
     26c:	8c 01       	movw	r16, r24
     26e:	61 15       	cp	r22, r1
     270:	71 05       	cpc	r23, r1
     272:	81 05       	cpc	r24, r1
     274:	91 05       	cpc	r25, r1
     276:	19 f4       	brne	.+6      	; 0x27e <__floatunsisf+0x20>
     278:	82 e0       	ldi	r24, 0x02	; 2
     27a:	89 83       	std	Y+1, r24	; 0x01
     27c:	60 c0       	rjmp	.+192    	; 0x33e <__floatunsisf+0xe0>
     27e:	83 e0       	ldi	r24, 0x03	; 3
     280:	89 83       	std	Y+1, r24	; 0x01
     282:	8e e1       	ldi	r24, 0x1E	; 30
     284:	c8 2e       	mov	r12, r24
     286:	d1 2c       	mov	r13, r1
     288:	dc 82       	std	Y+4, r13	; 0x04
     28a:	cb 82       	std	Y+3, r12	; 0x03
     28c:	ed 82       	std	Y+5, r14	; 0x05
     28e:	fe 82       	std	Y+6, r15	; 0x06
     290:	0f 83       	std	Y+7, r16	; 0x07
     292:	18 87       	std	Y+8, r17	; 0x08
     294:	c8 01       	movw	r24, r16
     296:	b7 01       	movw	r22, r14
     298:	0e 94 a8 01 	call	0x350	; 0x350 <__clzsi2>
     29c:	fc 01       	movw	r30, r24
     29e:	31 97       	sbiw	r30, 0x01	; 1
     2a0:	f7 ff       	sbrs	r31, 7
     2a2:	3b c0       	rjmp	.+118    	; 0x31a <__floatunsisf+0xbc>
     2a4:	22 27       	eor	r18, r18
     2a6:	33 27       	eor	r19, r19
     2a8:	2e 1b       	sub	r18, r30
     2aa:	3f 0b       	sbc	r19, r31
     2ac:	57 01       	movw	r10, r14
     2ae:	68 01       	movw	r12, r16
     2b0:	02 2e       	mov	r0, r18
     2b2:	04 c0       	rjmp	.+8      	; 0x2bc <__floatunsisf+0x5e>
     2b4:	d6 94       	lsr	r13
     2b6:	c7 94       	ror	r12
     2b8:	b7 94       	ror	r11
     2ba:	a7 94       	ror	r10
     2bc:	0a 94       	dec	r0
     2be:	d2 f7       	brpl	.-12     	; 0x2b4 <__floatunsisf+0x56>
     2c0:	40 e0       	ldi	r20, 0x00	; 0
     2c2:	50 e0       	ldi	r21, 0x00	; 0
     2c4:	60 e0       	ldi	r22, 0x00	; 0
     2c6:	70 e0       	ldi	r23, 0x00	; 0
     2c8:	81 e0       	ldi	r24, 0x01	; 1
     2ca:	90 e0       	ldi	r25, 0x00	; 0
     2cc:	a0 e0       	ldi	r26, 0x00	; 0
     2ce:	b0 e0       	ldi	r27, 0x00	; 0
     2d0:	04 c0       	rjmp	.+8      	; 0x2da <__floatunsisf+0x7c>
     2d2:	88 0f       	add	r24, r24
     2d4:	99 1f       	adc	r25, r25
     2d6:	aa 1f       	adc	r26, r26
     2d8:	bb 1f       	adc	r27, r27
     2da:	2a 95       	dec	r18
     2dc:	d2 f7       	brpl	.-12     	; 0x2d2 <__floatunsisf+0x74>
     2de:	01 97       	sbiw	r24, 0x01	; 1
     2e0:	a1 09       	sbc	r26, r1
     2e2:	b1 09       	sbc	r27, r1
     2e4:	8e 21       	and	r24, r14
     2e6:	9f 21       	and	r25, r15
     2e8:	a0 23       	and	r26, r16
     2ea:	b1 23       	and	r27, r17
     2ec:	00 97       	sbiw	r24, 0x00	; 0
     2ee:	a1 05       	cpc	r26, r1
     2f0:	b1 05       	cpc	r27, r1
     2f2:	21 f0       	breq	.+8      	; 0x2fc <__floatunsisf+0x9e>
     2f4:	41 e0       	ldi	r20, 0x01	; 1
     2f6:	50 e0       	ldi	r21, 0x00	; 0
     2f8:	60 e0       	ldi	r22, 0x00	; 0
     2fa:	70 e0       	ldi	r23, 0x00	; 0
     2fc:	4a 29       	or	r20, r10
     2fe:	5b 29       	or	r21, r11
     300:	6c 29       	or	r22, r12
     302:	7d 29       	or	r23, r13
     304:	4d 83       	std	Y+5, r20	; 0x05
     306:	5e 83       	std	Y+6, r21	; 0x06
     308:	6f 83       	std	Y+7, r22	; 0x07
     30a:	78 87       	std	Y+8, r23	; 0x08
     30c:	8e e1       	ldi	r24, 0x1E	; 30
     30e:	90 e0       	ldi	r25, 0x00	; 0
     310:	8e 1b       	sub	r24, r30
     312:	9f 0b       	sbc	r25, r31
     314:	9c 83       	std	Y+4, r25	; 0x04
     316:	8b 83       	std	Y+3, r24	; 0x03
     318:	12 c0       	rjmp	.+36     	; 0x33e <__floatunsisf+0xe0>
     31a:	30 97       	sbiw	r30, 0x00	; 0
     31c:	81 f0       	breq	.+32     	; 0x33e <__floatunsisf+0xe0>
     31e:	0e 2e       	mov	r0, r30
     320:	04 c0       	rjmp	.+8      	; 0x32a <__floatunsisf+0xcc>
     322:	ee 0c       	add	r14, r14
     324:	ff 1c       	adc	r15, r15
     326:	00 1f       	adc	r16, r16
     328:	11 1f       	adc	r17, r17
     32a:	0a 94       	dec	r0
     32c:	d2 f7       	brpl	.-12     	; 0x322 <__floatunsisf+0xc4>
     32e:	ed 82       	std	Y+5, r14	; 0x05
     330:	fe 82       	std	Y+6, r15	; 0x06
     332:	0f 83       	std	Y+7, r16	; 0x07
     334:	18 87       	std	Y+8, r17	; 0x08
     336:	ce 1a       	sub	r12, r30
     338:	df 0a       	sbc	r13, r31
     33a:	dc 82       	std	Y+4, r13	; 0x04
     33c:	cb 82       	std	Y+3, r12	; 0x03
     33e:	1a 82       	std	Y+2, r1	; 0x02
     340:	ce 01       	movw	r24, r28
     342:	01 96       	adiw	r24, 0x01	; 1
     344:	0e 94 f7 01 	call	0x3ee	; 0x3ee <__pack_f>
     348:	28 96       	adiw	r28, 0x08	; 8
     34a:	ea e0       	ldi	r30, 0x0A	; 10
     34c:	0c 94 b2 08 	jmp	0x1164	; 0x1164 <__epilogue_restores__+0x10>

00000350 <__clzsi2>:
     350:	ef 92       	push	r14
     352:	ff 92       	push	r15
     354:	0f 93       	push	r16
     356:	1f 93       	push	r17
     358:	7b 01       	movw	r14, r22
     35a:	8c 01       	movw	r16, r24
     35c:	80 e0       	ldi	r24, 0x00	; 0
     35e:	e8 16       	cp	r14, r24
     360:	80 e0       	ldi	r24, 0x00	; 0
     362:	f8 06       	cpc	r15, r24
     364:	81 e0       	ldi	r24, 0x01	; 1
     366:	08 07       	cpc	r16, r24
     368:	80 e0       	ldi	r24, 0x00	; 0
     36a:	18 07       	cpc	r17, r24
     36c:	88 f4       	brcc	.+34     	; 0x390 <__clzsi2+0x40>
     36e:	8f ef       	ldi	r24, 0xFF	; 255
     370:	e8 16       	cp	r14, r24
     372:	f1 04       	cpc	r15, r1
     374:	01 05       	cpc	r16, r1
     376:	11 05       	cpc	r17, r1
     378:	31 f0       	breq	.+12     	; 0x386 <__clzsi2+0x36>
     37a:	28 f0       	brcs	.+10     	; 0x386 <__clzsi2+0x36>
     37c:	88 e0       	ldi	r24, 0x08	; 8
     37e:	90 e0       	ldi	r25, 0x00	; 0
     380:	a0 e0       	ldi	r26, 0x00	; 0
     382:	b0 e0       	ldi	r27, 0x00	; 0
     384:	17 c0       	rjmp	.+46     	; 0x3b4 <__clzsi2+0x64>
     386:	80 e0       	ldi	r24, 0x00	; 0
     388:	90 e0       	ldi	r25, 0x00	; 0
     38a:	a0 e0       	ldi	r26, 0x00	; 0
     38c:	b0 e0       	ldi	r27, 0x00	; 0
     38e:	12 c0       	rjmp	.+36     	; 0x3b4 <__clzsi2+0x64>
     390:	80 e0       	ldi	r24, 0x00	; 0
     392:	e8 16       	cp	r14, r24
     394:	80 e0       	ldi	r24, 0x00	; 0
     396:	f8 06       	cpc	r15, r24
     398:	80 e0       	ldi	r24, 0x00	; 0
     39a:	08 07       	cpc	r16, r24
     39c:	81 e0       	ldi	r24, 0x01	; 1
     39e:	18 07       	cpc	r17, r24
     3a0:	28 f0       	brcs	.+10     	; 0x3ac <__clzsi2+0x5c>
     3a2:	88 e1       	ldi	r24, 0x18	; 24
     3a4:	90 e0       	ldi	r25, 0x00	; 0
     3a6:	a0 e0       	ldi	r26, 0x00	; 0
     3a8:	b0 e0       	ldi	r27, 0x00	; 0
     3aa:	04 c0       	rjmp	.+8      	; 0x3b4 <__clzsi2+0x64>
     3ac:	80 e1       	ldi	r24, 0x10	; 16
     3ae:	90 e0       	ldi	r25, 0x00	; 0
     3b0:	a0 e0       	ldi	r26, 0x00	; 0
     3b2:	b0 e0       	ldi	r27, 0x00	; 0
     3b4:	20 e2       	ldi	r18, 0x20	; 32
     3b6:	30 e0       	ldi	r19, 0x00	; 0
     3b8:	40 e0       	ldi	r20, 0x00	; 0
     3ba:	50 e0       	ldi	r21, 0x00	; 0
     3bc:	28 1b       	sub	r18, r24
     3be:	39 0b       	sbc	r19, r25
     3c0:	4a 0b       	sbc	r20, r26
     3c2:	5b 0b       	sbc	r21, r27
     3c4:	04 c0       	rjmp	.+8      	; 0x3ce <__clzsi2+0x7e>
     3c6:	16 95       	lsr	r17
     3c8:	07 95       	ror	r16
     3ca:	f7 94       	ror	r15
     3cc:	e7 94       	ror	r14
     3ce:	8a 95       	dec	r24
     3d0:	d2 f7       	brpl	.-12     	; 0x3c6 <__clzsi2+0x76>
     3d2:	f7 01       	movw	r30, r14
     3d4:	e0 5a       	subi	r30, 0xA0	; 160
     3d6:	ff 4f       	sbci	r31, 0xFF	; 255
     3d8:	80 81       	ld	r24, Z
     3da:	28 1b       	sub	r18, r24
     3dc:	31 09       	sbc	r19, r1
     3de:	41 09       	sbc	r20, r1
     3e0:	51 09       	sbc	r21, r1
     3e2:	c9 01       	movw	r24, r18
     3e4:	1f 91       	pop	r17
     3e6:	0f 91       	pop	r16
     3e8:	ff 90       	pop	r15
     3ea:	ef 90       	pop	r14
     3ec:	08 95       	ret

000003ee <__pack_f>:
     3ee:	df 92       	push	r13
     3f0:	ef 92       	push	r14
     3f2:	ff 92       	push	r15
     3f4:	0f 93       	push	r16
     3f6:	1f 93       	push	r17
     3f8:	fc 01       	movw	r30, r24
     3fa:	e4 80       	ldd	r14, Z+4	; 0x04
     3fc:	f5 80       	ldd	r15, Z+5	; 0x05
     3fe:	06 81       	ldd	r16, Z+6	; 0x06
     400:	17 81       	ldd	r17, Z+7	; 0x07
     402:	d1 80       	ldd	r13, Z+1	; 0x01
     404:	80 81       	ld	r24, Z
     406:	82 30       	cpi	r24, 0x02	; 2
     408:	48 f4       	brcc	.+18     	; 0x41c <__pack_f+0x2e>
     40a:	80 e0       	ldi	r24, 0x00	; 0
     40c:	90 e0       	ldi	r25, 0x00	; 0
     40e:	a0 e1       	ldi	r26, 0x10	; 16
     410:	b0 e0       	ldi	r27, 0x00	; 0
     412:	e8 2a       	or	r14, r24
     414:	f9 2a       	or	r15, r25
     416:	0a 2b       	or	r16, r26
     418:	1b 2b       	or	r17, r27
     41a:	a5 c0       	rjmp	.+330    	; 0x566 <__pack_f+0x178>
     41c:	84 30       	cpi	r24, 0x04	; 4
     41e:	09 f4       	brne	.+2      	; 0x422 <__pack_f+0x34>
     420:	9f c0       	rjmp	.+318    	; 0x560 <__pack_f+0x172>
     422:	82 30       	cpi	r24, 0x02	; 2
     424:	21 f4       	brne	.+8      	; 0x42e <__pack_f+0x40>
     426:	ee 24       	eor	r14, r14
     428:	ff 24       	eor	r15, r15
     42a:	87 01       	movw	r16, r14
     42c:	05 c0       	rjmp	.+10     	; 0x438 <__pack_f+0x4a>
     42e:	e1 14       	cp	r14, r1
     430:	f1 04       	cpc	r15, r1
     432:	01 05       	cpc	r16, r1
     434:	11 05       	cpc	r17, r1
     436:	19 f4       	brne	.+6      	; 0x43e <__pack_f+0x50>
     438:	e0 e0       	ldi	r30, 0x00	; 0
     43a:	f0 e0       	ldi	r31, 0x00	; 0
     43c:	96 c0       	rjmp	.+300    	; 0x56a <__pack_f+0x17c>
     43e:	62 81       	ldd	r22, Z+2	; 0x02
     440:	73 81       	ldd	r23, Z+3	; 0x03
     442:	9f ef       	ldi	r25, 0xFF	; 255
     444:	62 38       	cpi	r22, 0x82	; 130
     446:	79 07       	cpc	r23, r25
     448:	0c f0       	brlt	.+2      	; 0x44c <__pack_f+0x5e>
     44a:	5b c0       	rjmp	.+182    	; 0x502 <__pack_f+0x114>
     44c:	22 e8       	ldi	r18, 0x82	; 130
     44e:	3f ef       	ldi	r19, 0xFF	; 255
     450:	26 1b       	sub	r18, r22
     452:	37 0b       	sbc	r19, r23
     454:	2a 31       	cpi	r18, 0x1A	; 26
     456:	31 05       	cpc	r19, r1
     458:	2c f0       	brlt	.+10     	; 0x464 <__pack_f+0x76>
     45a:	20 e0       	ldi	r18, 0x00	; 0
     45c:	30 e0       	ldi	r19, 0x00	; 0
     45e:	40 e0       	ldi	r20, 0x00	; 0
     460:	50 e0       	ldi	r21, 0x00	; 0
     462:	2a c0       	rjmp	.+84     	; 0x4b8 <__pack_f+0xca>
     464:	b8 01       	movw	r22, r16
     466:	a7 01       	movw	r20, r14
     468:	02 2e       	mov	r0, r18
     46a:	04 c0       	rjmp	.+8      	; 0x474 <__pack_f+0x86>
     46c:	76 95       	lsr	r23
     46e:	67 95       	ror	r22
     470:	57 95       	ror	r21
     472:	47 95       	ror	r20
     474:	0a 94       	dec	r0
     476:	d2 f7       	brpl	.-12     	; 0x46c <__pack_f+0x7e>
     478:	81 e0       	ldi	r24, 0x01	; 1
     47a:	90 e0       	ldi	r25, 0x00	; 0
     47c:	a0 e0       	ldi	r26, 0x00	; 0
     47e:	b0 e0       	ldi	r27, 0x00	; 0
     480:	04 c0       	rjmp	.+8      	; 0x48a <__pack_f+0x9c>
     482:	88 0f       	add	r24, r24
     484:	99 1f       	adc	r25, r25
     486:	aa 1f       	adc	r26, r26
     488:	bb 1f       	adc	r27, r27
     48a:	2a 95       	dec	r18
     48c:	d2 f7       	brpl	.-12     	; 0x482 <__pack_f+0x94>
     48e:	01 97       	sbiw	r24, 0x01	; 1
     490:	a1 09       	sbc	r26, r1
     492:	b1 09       	sbc	r27, r1
     494:	8e 21       	and	r24, r14
     496:	9f 21       	and	r25, r15
     498:	a0 23       	and	r26, r16
     49a:	b1 23       	and	r27, r17
     49c:	00 97       	sbiw	r24, 0x00	; 0
     49e:	a1 05       	cpc	r26, r1
     4a0:	b1 05       	cpc	r27, r1
     4a2:	21 f0       	breq	.+8      	; 0x4ac <__pack_f+0xbe>
     4a4:	81 e0       	ldi	r24, 0x01	; 1
     4a6:	90 e0       	ldi	r25, 0x00	; 0
     4a8:	a0 e0       	ldi	r26, 0x00	; 0
     4aa:	b0 e0       	ldi	r27, 0x00	; 0
     4ac:	9a 01       	movw	r18, r20
     4ae:	ab 01       	movw	r20, r22
     4b0:	28 2b       	or	r18, r24
     4b2:	39 2b       	or	r19, r25
     4b4:	4a 2b       	or	r20, r26
     4b6:	5b 2b       	or	r21, r27
     4b8:	da 01       	movw	r26, r20
     4ba:	c9 01       	movw	r24, r18
     4bc:	8f 77       	andi	r24, 0x7F	; 127
     4be:	90 70       	andi	r25, 0x00	; 0
     4c0:	a0 70       	andi	r26, 0x00	; 0
     4c2:	b0 70       	andi	r27, 0x00	; 0
     4c4:	80 34       	cpi	r24, 0x40	; 64
     4c6:	91 05       	cpc	r25, r1
     4c8:	a1 05       	cpc	r26, r1
     4ca:	b1 05       	cpc	r27, r1
     4cc:	39 f4       	brne	.+14     	; 0x4dc <__pack_f+0xee>
     4ce:	27 ff       	sbrs	r18, 7
     4d0:	09 c0       	rjmp	.+18     	; 0x4e4 <__pack_f+0xf6>
     4d2:	20 5c       	subi	r18, 0xC0	; 192
     4d4:	3f 4f       	sbci	r19, 0xFF	; 255
     4d6:	4f 4f       	sbci	r20, 0xFF	; 255
     4d8:	5f 4f       	sbci	r21, 0xFF	; 255
     4da:	04 c0       	rjmp	.+8      	; 0x4e4 <__pack_f+0xf6>
     4dc:	21 5c       	subi	r18, 0xC1	; 193
     4de:	3f 4f       	sbci	r19, 0xFF	; 255
     4e0:	4f 4f       	sbci	r20, 0xFF	; 255
     4e2:	5f 4f       	sbci	r21, 0xFF	; 255
     4e4:	e0 e0       	ldi	r30, 0x00	; 0
     4e6:	f0 e0       	ldi	r31, 0x00	; 0
     4e8:	20 30       	cpi	r18, 0x00	; 0
     4ea:	a0 e0       	ldi	r26, 0x00	; 0
     4ec:	3a 07       	cpc	r19, r26
     4ee:	a0 e0       	ldi	r26, 0x00	; 0
     4f0:	4a 07       	cpc	r20, r26
     4f2:	a0 e4       	ldi	r26, 0x40	; 64
     4f4:	5a 07       	cpc	r21, r26
     4f6:	10 f0       	brcs	.+4      	; 0x4fc <__pack_f+0x10e>
     4f8:	e1 e0       	ldi	r30, 0x01	; 1
     4fa:	f0 e0       	ldi	r31, 0x00	; 0
     4fc:	79 01       	movw	r14, r18
     4fe:	8a 01       	movw	r16, r20
     500:	27 c0       	rjmp	.+78     	; 0x550 <__pack_f+0x162>
     502:	60 38       	cpi	r22, 0x80	; 128
     504:	71 05       	cpc	r23, r1
     506:	64 f5       	brge	.+88     	; 0x560 <__pack_f+0x172>
     508:	fb 01       	movw	r30, r22
     50a:	e1 58       	subi	r30, 0x81	; 129
     50c:	ff 4f       	sbci	r31, 0xFF	; 255
     50e:	d8 01       	movw	r26, r16
     510:	c7 01       	movw	r24, r14
     512:	8f 77       	andi	r24, 0x7F	; 127
     514:	90 70       	andi	r25, 0x00	; 0
     516:	a0 70       	andi	r26, 0x00	; 0
     518:	b0 70       	andi	r27, 0x00	; 0
     51a:	80 34       	cpi	r24, 0x40	; 64
     51c:	91 05       	cpc	r25, r1
     51e:	a1 05       	cpc	r26, r1
     520:	b1 05       	cpc	r27, r1
     522:	39 f4       	brne	.+14     	; 0x532 <__pack_f+0x144>
     524:	e7 fe       	sbrs	r14, 7
     526:	0d c0       	rjmp	.+26     	; 0x542 <__pack_f+0x154>
     528:	80 e4       	ldi	r24, 0x40	; 64
     52a:	90 e0       	ldi	r25, 0x00	; 0
     52c:	a0 e0       	ldi	r26, 0x00	; 0
     52e:	b0 e0       	ldi	r27, 0x00	; 0
     530:	04 c0       	rjmp	.+8      	; 0x53a <__pack_f+0x14c>
     532:	8f e3       	ldi	r24, 0x3F	; 63
     534:	90 e0       	ldi	r25, 0x00	; 0
     536:	a0 e0       	ldi	r26, 0x00	; 0
     538:	b0 e0       	ldi	r27, 0x00	; 0
     53a:	e8 0e       	add	r14, r24
     53c:	f9 1e       	adc	r15, r25
     53e:	0a 1f       	adc	r16, r26
     540:	1b 1f       	adc	r17, r27
     542:	17 ff       	sbrs	r17, 7
     544:	05 c0       	rjmp	.+10     	; 0x550 <__pack_f+0x162>
     546:	16 95       	lsr	r17
     548:	07 95       	ror	r16
     54a:	f7 94       	ror	r15
     54c:	e7 94       	ror	r14
     54e:	31 96       	adiw	r30, 0x01	; 1
     550:	87 e0       	ldi	r24, 0x07	; 7
     552:	16 95       	lsr	r17
     554:	07 95       	ror	r16
     556:	f7 94       	ror	r15
     558:	e7 94       	ror	r14
     55a:	8a 95       	dec	r24
     55c:	d1 f7       	brne	.-12     	; 0x552 <__pack_f+0x164>
     55e:	05 c0       	rjmp	.+10     	; 0x56a <__pack_f+0x17c>
     560:	ee 24       	eor	r14, r14
     562:	ff 24       	eor	r15, r15
     564:	87 01       	movw	r16, r14
     566:	ef ef       	ldi	r30, 0xFF	; 255
     568:	f0 e0       	ldi	r31, 0x00	; 0
     56a:	6e 2f       	mov	r22, r30
     56c:	67 95       	ror	r22
     56e:	66 27       	eor	r22, r22
     570:	67 95       	ror	r22
     572:	90 2f       	mov	r25, r16
     574:	9f 77       	andi	r25, 0x7F	; 127
     576:	d7 94       	ror	r13
     578:	dd 24       	eor	r13, r13
     57a:	d7 94       	ror	r13
     57c:	8e 2f       	mov	r24, r30
     57e:	86 95       	lsr	r24
     580:	49 2f       	mov	r20, r25
     582:	46 2b       	or	r20, r22
     584:	58 2f       	mov	r21, r24
     586:	5d 29       	or	r21, r13
     588:	b7 01       	movw	r22, r14
     58a:	ca 01       	movw	r24, r20
     58c:	1f 91       	pop	r17
     58e:	0f 91       	pop	r16
     590:	ff 90       	pop	r15
     592:	ef 90       	pop	r14
     594:	df 90       	pop	r13
     596:	08 95       	ret

00000598 <__unpack_f>:
     598:	fc 01       	movw	r30, r24
     59a:	db 01       	movw	r26, r22
     59c:	40 81       	ld	r20, Z
     59e:	51 81       	ldd	r21, Z+1	; 0x01
     5a0:	22 81       	ldd	r18, Z+2	; 0x02
     5a2:	62 2f       	mov	r22, r18
     5a4:	6f 77       	andi	r22, 0x7F	; 127
     5a6:	70 e0       	ldi	r23, 0x00	; 0
     5a8:	22 1f       	adc	r18, r18
     5aa:	22 27       	eor	r18, r18
     5ac:	22 1f       	adc	r18, r18
     5ae:	93 81       	ldd	r25, Z+3	; 0x03
     5b0:	89 2f       	mov	r24, r25
     5b2:	88 0f       	add	r24, r24
     5b4:	82 2b       	or	r24, r18
     5b6:	28 2f       	mov	r18, r24
     5b8:	30 e0       	ldi	r19, 0x00	; 0
     5ba:	99 1f       	adc	r25, r25
     5bc:	99 27       	eor	r25, r25
     5be:	99 1f       	adc	r25, r25
     5c0:	11 96       	adiw	r26, 0x01	; 1
     5c2:	9c 93       	st	X, r25
     5c4:	11 97       	sbiw	r26, 0x01	; 1
     5c6:	21 15       	cp	r18, r1
     5c8:	31 05       	cpc	r19, r1
     5ca:	a9 f5       	brne	.+106    	; 0x636 <__unpack_f+0x9e>
     5cc:	41 15       	cp	r20, r1
     5ce:	51 05       	cpc	r21, r1
     5d0:	61 05       	cpc	r22, r1
     5d2:	71 05       	cpc	r23, r1
     5d4:	11 f4       	brne	.+4      	; 0x5da <__unpack_f+0x42>
     5d6:	82 e0       	ldi	r24, 0x02	; 2
     5d8:	37 c0       	rjmp	.+110    	; 0x648 <__unpack_f+0xb0>
     5da:	82 e8       	ldi	r24, 0x82	; 130
     5dc:	9f ef       	ldi	r25, 0xFF	; 255
     5de:	13 96       	adiw	r26, 0x03	; 3
     5e0:	9c 93       	st	X, r25
     5e2:	8e 93       	st	-X, r24
     5e4:	12 97       	sbiw	r26, 0x02	; 2
     5e6:	9a 01       	movw	r18, r20
     5e8:	ab 01       	movw	r20, r22
     5ea:	67 e0       	ldi	r22, 0x07	; 7
     5ec:	22 0f       	add	r18, r18
     5ee:	33 1f       	adc	r19, r19
     5f0:	44 1f       	adc	r20, r20
     5f2:	55 1f       	adc	r21, r21
     5f4:	6a 95       	dec	r22
     5f6:	d1 f7       	brne	.-12     	; 0x5ec <__unpack_f+0x54>
     5f8:	83 e0       	ldi	r24, 0x03	; 3
     5fa:	8c 93       	st	X, r24
     5fc:	0d c0       	rjmp	.+26     	; 0x618 <__unpack_f+0x80>
     5fe:	22 0f       	add	r18, r18
     600:	33 1f       	adc	r19, r19
     602:	44 1f       	adc	r20, r20
     604:	55 1f       	adc	r21, r21
     606:	12 96       	adiw	r26, 0x02	; 2
     608:	8d 91       	ld	r24, X+
     60a:	9c 91       	ld	r25, X
     60c:	13 97       	sbiw	r26, 0x03	; 3
     60e:	01 97       	sbiw	r24, 0x01	; 1
     610:	13 96       	adiw	r26, 0x03	; 3
     612:	9c 93       	st	X, r25
     614:	8e 93       	st	-X, r24
     616:	12 97       	sbiw	r26, 0x02	; 2
     618:	20 30       	cpi	r18, 0x00	; 0
     61a:	80 e0       	ldi	r24, 0x00	; 0
     61c:	38 07       	cpc	r19, r24
     61e:	80 e0       	ldi	r24, 0x00	; 0
     620:	48 07       	cpc	r20, r24
     622:	80 e4       	ldi	r24, 0x40	; 64
     624:	58 07       	cpc	r21, r24
     626:	58 f3       	brcs	.-42     	; 0x5fe <__unpack_f+0x66>
     628:	14 96       	adiw	r26, 0x04	; 4
     62a:	2d 93       	st	X+, r18
     62c:	3d 93       	st	X+, r19
     62e:	4d 93       	st	X+, r20
     630:	5c 93       	st	X, r21
     632:	17 97       	sbiw	r26, 0x07	; 7
     634:	08 95       	ret
     636:	2f 3f       	cpi	r18, 0xFF	; 255
     638:	31 05       	cpc	r19, r1
     63a:	79 f4       	brne	.+30     	; 0x65a <__unpack_f+0xc2>
     63c:	41 15       	cp	r20, r1
     63e:	51 05       	cpc	r21, r1
     640:	61 05       	cpc	r22, r1
     642:	71 05       	cpc	r23, r1
     644:	19 f4       	brne	.+6      	; 0x64c <__unpack_f+0xb4>
     646:	84 e0       	ldi	r24, 0x04	; 4
     648:	8c 93       	st	X, r24
     64a:	08 95       	ret
     64c:	64 ff       	sbrs	r22, 4
     64e:	03 c0       	rjmp	.+6      	; 0x656 <__unpack_f+0xbe>
     650:	81 e0       	ldi	r24, 0x01	; 1
     652:	8c 93       	st	X, r24
     654:	12 c0       	rjmp	.+36     	; 0x67a <__unpack_f+0xe2>
     656:	1c 92       	st	X, r1
     658:	10 c0       	rjmp	.+32     	; 0x67a <__unpack_f+0xe2>
     65a:	2f 57       	subi	r18, 0x7F	; 127
     65c:	30 40       	sbci	r19, 0x00	; 0
     65e:	13 96       	adiw	r26, 0x03	; 3
     660:	3c 93       	st	X, r19
     662:	2e 93       	st	-X, r18
     664:	12 97       	sbiw	r26, 0x02	; 2
     666:	83 e0       	ldi	r24, 0x03	; 3
     668:	8c 93       	st	X, r24
     66a:	87 e0       	ldi	r24, 0x07	; 7
     66c:	44 0f       	add	r20, r20
     66e:	55 1f       	adc	r21, r21
     670:	66 1f       	adc	r22, r22
     672:	77 1f       	adc	r23, r23
     674:	8a 95       	dec	r24
     676:	d1 f7       	brne	.-12     	; 0x66c <__unpack_f+0xd4>
     678:	70 64       	ori	r23, 0x40	; 64
     67a:	14 96       	adiw	r26, 0x04	; 4
     67c:	4d 93       	st	X+, r20
     67e:	5d 93       	st	X+, r21
     680:	6d 93       	st	X+, r22
     682:	7c 93       	st	X, r23
     684:	17 97       	sbiw	r26, 0x07	; 7
     686:	08 95       	ret

00000688 <__fpcmp_parts_f>:
     688:	1f 93       	push	r17
     68a:	dc 01       	movw	r26, r24
     68c:	fb 01       	movw	r30, r22
     68e:	9c 91       	ld	r25, X
     690:	92 30       	cpi	r25, 0x02	; 2
     692:	08 f4       	brcc	.+2      	; 0x696 <__fpcmp_parts_f+0xe>
     694:	47 c0       	rjmp	.+142    	; 0x724 <__fpcmp_parts_f+0x9c>
     696:	80 81       	ld	r24, Z
     698:	82 30       	cpi	r24, 0x02	; 2
     69a:	08 f4       	brcc	.+2      	; 0x69e <__fpcmp_parts_f+0x16>
     69c:	43 c0       	rjmp	.+134    	; 0x724 <__fpcmp_parts_f+0x9c>
     69e:	94 30       	cpi	r25, 0x04	; 4
     6a0:	51 f4       	brne	.+20     	; 0x6b6 <__fpcmp_parts_f+0x2e>
     6a2:	11 96       	adiw	r26, 0x01	; 1
     6a4:	1c 91       	ld	r17, X
     6a6:	84 30       	cpi	r24, 0x04	; 4
     6a8:	99 f5       	brne	.+102    	; 0x710 <__fpcmp_parts_f+0x88>
     6aa:	81 81       	ldd	r24, Z+1	; 0x01
     6ac:	68 2f       	mov	r22, r24
     6ae:	70 e0       	ldi	r23, 0x00	; 0
     6b0:	61 1b       	sub	r22, r17
     6b2:	71 09       	sbc	r23, r1
     6b4:	3f c0       	rjmp	.+126    	; 0x734 <__fpcmp_parts_f+0xac>
     6b6:	84 30       	cpi	r24, 0x04	; 4
     6b8:	21 f0       	breq	.+8      	; 0x6c2 <__fpcmp_parts_f+0x3a>
     6ba:	92 30       	cpi	r25, 0x02	; 2
     6bc:	31 f4       	brne	.+12     	; 0x6ca <__fpcmp_parts_f+0x42>
     6be:	82 30       	cpi	r24, 0x02	; 2
     6c0:	b9 f1       	breq	.+110    	; 0x730 <__fpcmp_parts_f+0xa8>
     6c2:	81 81       	ldd	r24, Z+1	; 0x01
     6c4:	88 23       	and	r24, r24
     6c6:	89 f1       	breq	.+98     	; 0x72a <__fpcmp_parts_f+0xa2>
     6c8:	2d c0       	rjmp	.+90     	; 0x724 <__fpcmp_parts_f+0x9c>
     6ca:	11 96       	adiw	r26, 0x01	; 1
     6cc:	1c 91       	ld	r17, X
     6ce:	11 97       	sbiw	r26, 0x01	; 1
     6d0:	82 30       	cpi	r24, 0x02	; 2
     6d2:	f1 f0       	breq	.+60     	; 0x710 <__fpcmp_parts_f+0x88>
     6d4:	81 81       	ldd	r24, Z+1	; 0x01
     6d6:	18 17       	cp	r17, r24
     6d8:	d9 f4       	brne	.+54     	; 0x710 <__fpcmp_parts_f+0x88>
     6da:	12 96       	adiw	r26, 0x02	; 2
     6dc:	2d 91       	ld	r18, X+
     6de:	3c 91       	ld	r19, X
     6e0:	13 97       	sbiw	r26, 0x03	; 3
     6e2:	82 81       	ldd	r24, Z+2	; 0x02
     6e4:	93 81       	ldd	r25, Z+3	; 0x03
     6e6:	82 17       	cp	r24, r18
     6e8:	93 07       	cpc	r25, r19
     6ea:	94 f0       	brlt	.+36     	; 0x710 <__fpcmp_parts_f+0x88>
     6ec:	28 17       	cp	r18, r24
     6ee:	39 07       	cpc	r19, r25
     6f0:	bc f0       	brlt	.+46     	; 0x720 <__fpcmp_parts_f+0x98>
     6f2:	14 96       	adiw	r26, 0x04	; 4
     6f4:	8d 91       	ld	r24, X+
     6f6:	9d 91       	ld	r25, X+
     6f8:	0d 90       	ld	r0, X+
     6fa:	bc 91       	ld	r27, X
     6fc:	a0 2d       	mov	r26, r0
     6fe:	24 81       	ldd	r18, Z+4	; 0x04
     700:	35 81       	ldd	r19, Z+5	; 0x05
     702:	46 81       	ldd	r20, Z+6	; 0x06
     704:	57 81       	ldd	r21, Z+7	; 0x07
     706:	28 17       	cp	r18, r24
     708:	39 07       	cpc	r19, r25
     70a:	4a 07       	cpc	r20, r26
     70c:	5b 07       	cpc	r21, r27
     70e:	18 f4       	brcc	.+6      	; 0x716 <__fpcmp_parts_f+0x8e>
     710:	11 23       	and	r17, r17
     712:	41 f0       	breq	.+16     	; 0x724 <__fpcmp_parts_f+0x9c>
     714:	0a c0       	rjmp	.+20     	; 0x72a <__fpcmp_parts_f+0xa2>
     716:	82 17       	cp	r24, r18
     718:	93 07       	cpc	r25, r19
     71a:	a4 07       	cpc	r26, r20
     71c:	b5 07       	cpc	r27, r21
     71e:	40 f4       	brcc	.+16     	; 0x730 <__fpcmp_parts_f+0xa8>
     720:	11 23       	and	r17, r17
     722:	19 f0       	breq	.+6      	; 0x72a <__fpcmp_parts_f+0xa2>
     724:	61 e0       	ldi	r22, 0x01	; 1
     726:	70 e0       	ldi	r23, 0x00	; 0
     728:	05 c0       	rjmp	.+10     	; 0x734 <__fpcmp_parts_f+0xac>
     72a:	6f ef       	ldi	r22, 0xFF	; 255
     72c:	7f ef       	ldi	r23, 0xFF	; 255
     72e:	02 c0       	rjmp	.+4      	; 0x734 <__fpcmp_parts_f+0xac>
     730:	60 e0       	ldi	r22, 0x00	; 0
     732:	70 e0       	ldi	r23, 0x00	; 0
     734:	cb 01       	movw	r24, r22
     736:	1f 91       	pop	r17
     738:	08 95       	ret

0000073a <DIO_vSetPinDir>:
     73a:	41 30       	cpi	r20, 0x01	; 1
     73c:	b1 f5       	brne	.+108    	; 0x7aa <DIO_vSetPinDir+0x70>
     73e:	81 30       	cpi	r24, 0x01	; 1
     740:	99 f0       	breq	.+38     	; 0x768 <DIO_vSetPinDir+0x2e>
     742:	81 30       	cpi	r24, 0x01	; 1
     744:	30 f0       	brcs	.+12     	; 0x752 <DIO_vSetPinDir+0x18>
     746:	82 30       	cpi	r24, 0x02	; 2
     748:	d1 f0       	breq	.+52     	; 0x77e <DIO_vSetPinDir+0x44>
     74a:	83 30       	cpi	r24, 0x03	; 3
     74c:	09 f0       	breq	.+2      	; 0x750 <DIO_vSetPinDir+0x16>
     74e:	67 c0       	rjmp	.+206    	; 0x81e <DIO_vSetPinDir+0xe4>
     750:	21 c0       	rjmp	.+66     	; 0x794 <DIO_vSetPinDir+0x5a>
     752:	2a b3       	in	r18, 0x1a	; 26
     754:	81 e0       	ldi	r24, 0x01	; 1
     756:	90 e0       	ldi	r25, 0x00	; 0
     758:	02 c0       	rjmp	.+4      	; 0x75e <DIO_vSetPinDir+0x24>
     75a:	88 0f       	add	r24, r24
     75c:	99 1f       	adc	r25, r25
     75e:	6a 95       	dec	r22
     760:	e2 f7       	brpl	.-8      	; 0x75a <DIO_vSetPinDir+0x20>
     762:	28 2b       	or	r18, r24
     764:	2a bb       	out	0x1a, r18	; 26
     766:	08 95       	ret
     768:	27 b3       	in	r18, 0x17	; 23
     76a:	81 e0       	ldi	r24, 0x01	; 1
     76c:	90 e0       	ldi	r25, 0x00	; 0
     76e:	02 c0       	rjmp	.+4      	; 0x774 <DIO_vSetPinDir+0x3a>
     770:	88 0f       	add	r24, r24
     772:	99 1f       	adc	r25, r25
     774:	6a 95       	dec	r22
     776:	e2 f7       	brpl	.-8      	; 0x770 <DIO_vSetPinDir+0x36>
     778:	28 2b       	or	r18, r24
     77a:	27 bb       	out	0x17, r18	; 23
     77c:	08 95       	ret
     77e:	24 b3       	in	r18, 0x14	; 20
     780:	81 e0       	ldi	r24, 0x01	; 1
     782:	90 e0       	ldi	r25, 0x00	; 0
     784:	02 c0       	rjmp	.+4      	; 0x78a <DIO_vSetPinDir+0x50>
     786:	88 0f       	add	r24, r24
     788:	99 1f       	adc	r25, r25
     78a:	6a 95       	dec	r22
     78c:	e2 f7       	brpl	.-8      	; 0x786 <DIO_vSetPinDir+0x4c>
     78e:	28 2b       	or	r18, r24
     790:	24 bb       	out	0x14, r18	; 20
     792:	08 95       	ret
     794:	21 b3       	in	r18, 0x11	; 17
     796:	81 e0       	ldi	r24, 0x01	; 1
     798:	90 e0       	ldi	r25, 0x00	; 0
     79a:	02 c0       	rjmp	.+4      	; 0x7a0 <DIO_vSetPinDir+0x66>
     79c:	88 0f       	add	r24, r24
     79e:	99 1f       	adc	r25, r25
     7a0:	6a 95       	dec	r22
     7a2:	e2 f7       	brpl	.-8      	; 0x79c <DIO_vSetPinDir+0x62>
     7a4:	28 2b       	or	r18, r24
     7a6:	21 bb       	out	0x11, r18	; 17
     7a8:	08 95       	ret
     7aa:	44 23       	and	r20, r20
     7ac:	c1 f5       	brne	.+112    	; 0x81e <DIO_vSetPinDir+0xe4>
     7ae:	81 30       	cpi	r24, 0x01	; 1
     7b0:	99 f0       	breq	.+38     	; 0x7d8 <DIO_vSetPinDir+0x9e>
     7b2:	81 30       	cpi	r24, 0x01	; 1
     7b4:	28 f0       	brcs	.+10     	; 0x7c0 <DIO_vSetPinDir+0x86>
     7b6:	82 30       	cpi	r24, 0x02	; 2
     7b8:	d9 f0       	breq	.+54     	; 0x7f0 <DIO_vSetPinDir+0xb6>
     7ba:	83 30       	cpi	r24, 0x03	; 3
     7bc:	81 f5       	brne	.+96     	; 0x81e <DIO_vSetPinDir+0xe4>
     7be:	24 c0       	rjmp	.+72     	; 0x808 <DIO_vSetPinDir+0xce>
     7c0:	2a b3       	in	r18, 0x1a	; 26
     7c2:	81 e0       	ldi	r24, 0x01	; 1
     7c4:	90 e0       	ldi	r25, 0x00	; 0
     7c6:	02 c0       	rjmp	.+4      	; 0x7cc <DIO_vSetPinDir+0x92>
     7c8:	88 0f       	add	r24, r24
     7ca:	99 1f       	adc	r25, r25
     7cc:	6a 95       	dec	r22
     7ce:	e2 f7       	brpl	.-8      	; 0x7c8 <DIO_vSetPinDir+0x8e>
     7d0:	80 95       	com	r24
     7d2:	82 23       	and	r24, r18
     7d4:	8a bb       	out	0x1a, r24	; 26
     7d6:	08 95       	ret
     7d8:	27 b3       	in	r18, 0x17	; 23
     7da:	81 e0       	ldi	r24, 0x01	; 1
     7dc:	90 e0       	ldi	r25, 0x00	; 0
     7de:	02 c0       	rjmp	.+4      	; 0x7e4 <DIO_vSetPinDir+0xaa>
     7e0:	88 0f       	add	r24, r24
     7e2:	99 1f       	adc	r25, r25
     7e4:	6a 95       	dec	r22
     7e6:	e2 f7       	brpl	.-8      	; 0x7e0 <DIO_vSetPinDir+0xa6>
     7e8:	80 95       	com	r24
     7ea:	82 23       	and	r24, r18
     7ec:	87 bb       	out	0x17, r24	; 23
     7ee:	08 95       	ret
     7f0:	24 b3       	in	r18, 0x14	; 20
     7f2:	81 e0       	ldi	r24, 0x01	; 1
     7f4:	90 e0       	ldi	r25, 0x00	; 0
     7f6:	02 c0       	rjmp	.+4      	; 0x7fc <DIO_vSetPinDir+0xc2>
     7f8:	88 0f       	add	r24, r24
     7fa:	99 1f       	adc	r25, r25
     7fc:	6a 95       	dec	r22
     7fe:	e2 f7       	brpl	.-8      	; 0x7f8 <DIO_vSetPinDir+0xbe>
     800:	80 95       	com	r24
     802:	82 23       	and	r24, r18
     804:	84 bb       	out	0x14, r24	; 20
     806:	08 95       	ret
     808:	21 b3       	in	r18, 0x11	; 17
     80a:	81 e0       	ldi	r24, 0x01	; 1
     80c:	90 e0       	ldi	r25, 0x00	; 0
     80e:	02 c0       	rjmp	.+4      	; 0x814 <DIO_vSetPinDir+0xda>
     810:	88 0f       	add	r24, r24
     812:	99 1f       	adc	r25, r25
     814:	6a 95       	dec	r22
     816:	e2 f7       	brpl	.-8      	; 0x810 <DIO_vSetPinDir+0xd6>
     818:	80 95       	com	r24
     81a:	82 23       	and	r24, r18
     81c:	81 bb       	out	0x11, r24	; 17
     81e:	08 95       	ret

00000820 <DIO_vSetPinVal>:
     820:	41 30       	cpi	r20, 0x01	; 1
     822:	b1 f5       	brne	.+108    	; 0x890 <__stack+0x31>
     824:	81 30       	cpi	r24, 0x01	; 1
     826:	99 f0       	breq	.+38     	; 0x84e <DIO_vSetPinVal+0x2e>
     828:	81 30       	cpi	r24, 0x01	; 1
     82a:	30 f0       	brcs	.+12     	; 0x838 <DIO_vSetPinVal+0x18>
     82c:	82 30       	cpi	r24, 0x02	; 2
     82e:	d1 f0       	breq	.+52     	; 0x864 <__stack+0x5>
     830:	83 30       	cpi	r24, 0x03	; 3
     832:	09 f0       	breq	.+2      	; 0x836 <DIO_vSetPinVal+0x16>
     834:	67 c0       	rjmp	.+206    	; 0x904 <__stack+0xa5>
     836:	21 c0       	rjmp	.+66     	; 0x87a <__stack+0x1b>
     838:	2b b3       	in	r18, 0x1b	; 27
     83a:	81 e0       	ldi	r24, 0x01	; 1
     83c:	90 e0       	ldi	r25, 0x00	; 0
     83e:	02 c0       	rjmp	.+4      	; 0x844 <DIO_vSetPinVal+0x24>
     840:	88 0f       	add	r24, r24
     842:	99 1f       	adc	r25, r25
     844:	6a 95       	dec	r22
     846:	e2 f7       	brpl	.-8      	; 0x840 <DIO_vSetPinVal+0x20>
     848:	28 2b       	or	r18, r24
     84a:	2b bb       	out	0x1b, r18	; 27
     84c:	08 95       	ret
     84e:	28 b3       	in	r18, 0x18	; 24
     850:	81 e0       	ldi	r24, 0x01	; 1
     852:	90 e0       	ldi	r25, 0x00	; 0
     854:	02 c0       	rjmp	.+4      	; 0x85a <DIO_vSetPinVal+0x3a>
     856:	88 0f       	add	r24, r24
     858:	99 1f       	adc	r25, r25
     85a:	6a 95       	dec	r22
     85c:	e2 f7       	brpl	.-8      	; 0x856 <DIO_vSetPinVal+0x36>
     85e:	28 2b       	or	r18, r24
     860:	28 bb       	out	0x18, r18	; 24
     862:	08 95       	ret
     864:	25 b3       	in	r18, 0x15	; 21
     866:	81 e0       	ldi	r24, 0x01	; 1
     868:	90 e0       	ldi	r25, 0x00	; 0
     86a:	02 c0       	rjmp	.+4      	; 0x870 <__stack+0x11>
     86c:	88 0f       	add	r24, r24
     86e:	99 1f       	adc	r25, r25
     870:	6a 95       	dec	r22
     872:	e2 f7       	brpl	.-8      	; 0x86c <__stack+0xd>
     874:	28 2b       	or	r18, r24
     876:	25 bb       	out	0x15, r18	; 21
     878:	08 95       	ret
     87a:	22 b3       	in	r18, 0x12	; 18
     87c:	81 e0       	ldi	r24, 0x01	; 1
     87e:	90 e0       	ldi	r25, 0x00	; 0
     880:	02 c0       	rjmp	.+4      	; 0x886 <__stack+0x27>
     882:	88 0f       	add	r24, r24
     884:	99 1f       	adc	r25, r25
     886:	6a 95       	dec	r22
     888:	e2 f7       	brpl	.-8      	; 0x882 <__stack+0x23>
     88a:	28 2b       	or	r18, r24
     88c:	22 bb       	out	0x12, r18	; 18
     88e:	08 95       	ret
     890:	44 23       	and	r20, r20
     892:	c1 f5       	brne	.+112    	; 0x904 <__stack+0xa5>
     894:	81 30       	cpi	r24, 0x01	; 1
     896:	99 f0       	breq	.+38     	; 0x8be <__stack+0x5f>
     898:	81 30       	cpi	r24, 0x01	; 1
     89a:	28 f0       	brcs	.+10     	; 0x8a6 <__stack+0x47>
     89c:	82 30       	cpi	r24, 0x02	; 2
     89e:	d9 f0       	breq	.+54     	; 0x8d6 <__stack+0x77>
     8a0:	83 30       	cpi	r24, 0x03	; 3
     8a2:	81 f5       	brne	.+96     	; 0x904 <__stack+0xa5>
     8a4:	24 c0       	rjmp	.+72     	; 0x8ee <__stack+0x8f>
     8a6:	2b b3       	in	r18, 0x1b	; 27
     8a8:	81 e0       	ldi	r24, 0x01	; 1
     8aa:	90 e0       	ldi	r25, 0x00	; 0
     8ac:	02 c0       	rjmp	.+4      	; 0x8b2 <__stack+0x53>
     8ae:	88 0f       	add	r24, r24
     8b0:	99 1f       	adc	r25, r25
     8b2:	6a 95       	dec	r22
     8b4:	e2 f7       	brpl	.-8      	; 0x8ae <__stack+0x4f>
     8b6:	80 95       	com	r24
     8b8:	82 23       	and	r24, r18
     8ba:	8b bb       	out	0x1b, r24	; 27
     8bc:	08 95       	ret
     8be:	28 b3       	in	r18, 0x18	; 24
     8c0:	81 e0       	ldi	r24, 0x01	; 1
     8c2:	90 e0       	ldi	r25, 0x00	; 0
     8c4:	02 c0       	rjmp	.+4      	; 0x8ca <__stack+0x6b>
     8c6:	88 0f       	add	r24, r24
     8c8:	99 1f       	adc	r25, r25
     8ca:	6a 95       	dec	r22
     8cc:	e2 f7       	brpl	.-8      	; 0x8c6 <__stack+0x67>
     8ce:	80 95       	com	r24
     8d0:	82 23       	and	r24, r18
     8d2:	88 bb       	out	0x18, r24	; 24
     8d4:	08 95       	ret
     8d6:	25 b3       	in	r18, 0x15	; 21
     8d8:	81 e0       	ldi	r24, 0x01	; 1
     8da:	90 e0       	ldi	r25, 0x00	; 0
     8dc:	02 c0       	rjmp	.+4      	; 0x8e2 <__stack+0x83>
     8de:	88 0f       	add	r24, r24
     8e0:	99 1f       	adc	r25, r25
     8e2:	6a 95       	dec	r22
     8e4:	e2 f7       	brpl	.-8      	; 0x8de <__stack+0x7f>
     8e6:	80 95       	com	r24
     8e8:	82 23       	and	r24, r18
     8ea:	85 bb       	out	0x15, r24	; 21
     8ec:	08 95       	ret
     8ee:	22 b3       	in	r18, 0x12	; 18
     8f0:	81 e0       	ldi	r24, 0x01	; 1
     8f2:	90 e0       	ldi	r25, 0x00	; 0
     8f4:	02 c0       	rjmp	.+4      	; 0x8fa <__stack+0x9b>
     8f6:	88 0f       	add	r24, r24
     8f8:	99 1f       	adc	r25, r25
     8fa:	6a 95       	dec	r22
     8fc:	e2 f7       	brpl	.-8      	; 0x8f6 <__stack+0x97>
     8fe:	80 95       	com	r24
     900:	82 23       	and	r24, r18
     902:	82 bb       	out	0x12, r24	; 18
     904:	08 95       	ret

00000906 <DIO_u8GetPinVal>:
     906:	81 30       	cpi	r24, 0x01	; 1
     908:	51 f0       	breq	.+20     	; 0x91e <DIO_u8GetPinVal+0x18>
     90a:	81 30       	cpi	r24, 0x01	; 1
     90c:	30 f0       	brcs	.+12     	; 0x91a <DIO_u8GetPinVal+0x14>
     90e:	82 30       	cpi	r24, 0x02	; 2
     910:	41 f0       	breq	.+16     	; 0x922 <DIO_u8GetPinVal+0x1c>
     912:	83 30       	cpi	r24, 0x03	; 3
     914:	79 f0       	breq	.+30     	; 0x934 <DIO_u8GetPinVal+0x2e>
     916:	80 e0       	ldi	r24, 0x00	; 0
     918:	08 95       	ret
     91a:	89 b3       	in	r24, 0x19	; 25
     91c:	03 c0       	rjmp	.+6      	; 0x924 <DIO_u8GetPinVal+0x1e>
     91e:	86 b3       	in	r24, 0x16	; 22
     920:	01 c0       	rjmp	.+2      	; 0x924 <DIO_u8GetPinVal+0x1e>
     922:	83 b3       	in	r24, 0x13	; 19
     924:	90 e0       	ldi	r25, 0x00	; 0
     926:	02 c0       	rjmp	.+4      	; 0x92c <DIO_u8GetPinVal+0x26>
     928:	95 95       	asr	r25
     92a:	87 95       	ror	r24
     92c:	6a 95       	dec	r22
     92e:	e2 f7       	brpl	.-8      	; 0x928 <DIO_u8GetPinVal+0x22>
     930:	81 70       	andi	r24, 0x01	; 1
     932:	08 95       	ret
     934:	80 b3       	in	r24, 0x10	; 16
     936:	90 e0       	ldi	r25, 0x00	; 0
     938:	02 c0       	rjmp	.+4      	; 0x93e <DIO_u8GetPinVal+0x38>
     93a:	95 95       	asr	r25
     93c:	87 95       	ror	r24
     93e:	6a 95       	dec	r22
     940:	e2 f7       	brpl	.-8      	; 0x93a <DIO_u8GetPinVal+0x34>
     942:	81 70       	andi	r24, 0x01	; 1
     944:	08 95       	ret

00000946 <DIO_vSetPortDir>:
     946:	81 30       	cpi	r24, 0x01	; 1
     948:	49 f0       	breq	.+18     	; 0x95c <DIO_vSetPortDir+0x16>
     94a:	81 30       	cpi	r24, 0x01	; 1
     94c:	28 f0       	brcs	.+10     	; 0x958 <DIO_vSetPortDir+0x12>
     94e:	82 30       	cpi	r24, 0x02	; 2
     950:	39 f0       	breq	.+14     	; 0x960 <DIO_vSetPortDir+0x1a>
     952:	83 30       	cpi	r24, 0x03	; 3
     954:	41 f4       	brne	.+16     	; 0x966 <DIO_vSetPortDir+0x20>
     956:	06 c0       	rjmp	.+12     	; 0x964 <DIO_vSetPortDir+0x1e>
     958:	6a bb       	out	0x1a, r22	; 26
     95a:	08 95       	ret
     95c:	67 bb       	out	0x17, r22	; 23
     95e:	08 95       	ret
     960:	64 bb       	out	0x14, r22	; 20
     962:	08 95       	ret
     964:	61 bb       	out	0x11, r22	; 17
     966:	08 95       	ret

00000968 <DIO_vSetPortVal>:
     968:	81 30       	cpi	r24, 0x01	; 1
     96a:	49 f0       	breq	.+18     	; 0x97e <DIO_vSetPortVal+0x16>
     96c:	81 30       	cpi	r24, 0x01	; 1
     96e:	28 f0       	brcs	.+10     	; 0x97a <DIO_vSetPortVal+0x12>
     970:	82 30       	cpi	r24, 0x02	; 2
     972:	39 f0       	breq	.+14     	; 0x982 <DIO_vSetPortVal+0x1a>
     974:	83 30       	cpi	r24, 0x03	; 3
     976:	41 f4       	brne	.+16     	; 0x988 <DIO_vSetPortVal+0x20>
     978:	06 c0       	rjmp	.+12     	; 0x986 <DIO_vSetPortVal+0x1e>
     97a:	6b bb       	out	0x1b, r22	; 27
     97c:	08 95       	ret
     97e:	68 bb       	out	0x18, r22	; 24
     980:	08 95       	ret
     982:	65 bb       	out	0x15, r22	; 21
     984:	08 95       	ret
     986:	62 bb       	out	0x12, r22	; 18
     988:	08 95       	ret

0000098a <DIO_u8GetPortVal>:
     98a:	81 30       	cpi	r24, 0x01	; 1
     98c:	51 f0       	breq	.+20     	; 0x9a2 <DIO_u8GetPortVal+0x18>
     98e:	81 30       	cpi	r24, 0x01	; 1
     990:	30 f0       	brcs	.+12     	; 0x99e <DIO_u8GetPortVal+0x14>
     992:	82 30       	cpi	r24, 0x02	; 2
     994:	41 f0       	breq	.+16     	; 0x9a6 <DIO_u8GetPortVal+0x1c>
     996:	83 30       	cpi	r24, 0x03	; 3
     998:	41 f0       	breq	.+16     	; 0x9aa <DIO_u8GetPortVal+0x20>
     99a:	80 e0       	ldi	r24, 0x00	; 0
     99c:	08 95       	ret
     99e:	8b b3       	in	r24, 0x1b	; 27
     9a0:	08 95       	ret
     9a2:	88 b3       	in	r24, 0x18	; 24
     9a4:	08 95       	ret
     9a6:	85 b3       	in	r24, 0x15	; 21
     9a8:	08 95       	ret
     9aa:	82 b3       	in	r24, 0x12	; 18
     9ac:	08 95       	ret

000009ae <MADC_vInit>:
     9ae:	3f 98       	cbi	0x07, 7	; 7
     9b0:	3e 9a       	sbi	0x07, 6	; 7
     9b2:	3d 98       	cbi	0x07, 5	; 7
     9b4:	86 b1       	in	r24, 0x06	; 6
     9b6:	88 7f       	andi	r24, 0xF8	; 248
     9b8:	86 60       	ori	r24, 0x06	; 6
     9ba:	86 b9       	out	0x06, r24	; 6
     9bc:	35 98       	cbi	0x06, 5	; 6
     9be:	33 98       	cbi	0x06, 3	; 6
     9c0:	37 9a       	sbi	0x06, 7	; 6
     9c2:	08 95       	ret

000009c4 <MADC_u16AnalogRead>:
     9c4:	97 b1       	in	r25, 0x07	; 7
     9c6:	87 70       	andi	r24, 0x07	; 7
     9c8:	90 7e       	andi	r25, 0xE0	; 224
     9ca:	89 2b       	or	r24, r25
     9cc:	87 b9       	out	0x07, r24	; 7
     9ce:	36 9a       	sbi	0x06, 6	; 6
     9d0:	34 9b       	sbis	0x06, 4	; 6
     9d2:	fe cf       	rjmp	.-4      	; 0x9d0 <MADC_u16AnalogRead+0xc>
     9d4:	34 9a       	sbi	0x06, 4	; 6
     9d6:	24 b1       	in	r18, 0x04	; 4
     9d8:	35 b1       	in	r19, 0x05	; 5
     9da:	c9 01       	movw	r24, r18
     9dc:	08 95       	ret

000009de <MADC_u8Map>:
     9de:	8f 92       	push	r8
     9e0:	9f 92       	push	r9
     9e2:	af 92       	push	r10
     9e4:	bf 92       	push	r11
     9e6:	cf 92       	push	r12
     9e8:	df 92       	push	r13
     9ea:	ef 92       	push	r14
     9ec:	ff 92       	push	r15
     9ee:	0f 93       	push	r16
     9f0:	1f 93       	push	r17
     9f2:	cf 93       	push	r28
     9f4:	df 93       	push	r29
     9f6:	5b 01       	movw	r10, r22
     9f8:	6c 01       	movw	r12, r24
     9fa:	4a 01       	movw	r8, r20
     9fc:	e9 01       	movw	r28, r18
     9fe:	20 e0       	ldi	r18, 0x00	; 0
     a00:	30 e0       	ldi	r19, 0x00	; 0
     a02:	40 e0       	ldi	r20, 0x00	; 0
     a04:	50 e0       	ldi	r21, 0x00	; 0
     a06:	0e 94 41 00 	call	0x82	; 0x82 <__nesf2>
     a0a:	88 23       	and	r24, r24
     a0c:	09 f4       	brne	.+2      	; 0xa10 <MADC_u8Map+0x32>
     a0e:	4f c1       	rjmp	.+670    	; 0xcae <MADC_u8Map+0x2d0>
     a10:	c8 19       	sub	r28, r8
     a12:	d9 09       	sbc	r29, r9
     a14:	e0 1a       	sub	r14, r16
     a16:	f1 0a       	sbc	r15, r17
     a18:	08 94       	sec
     a1a:	e1 1c       	adc	r14, r1
     a1c:	f1 1c       	adc	r15, r1
     a1e:	ce 01       	movw	r24, r28
     a20:	01 96       	adiw	r24, 0x01	; 1
     a22:	b7 01       	movw	r22, r14
     a24:	0e 94 3d 08 	call	0x107a	; 0x107a <__udivmodhi4>
     a28:	e6 2e       	mov	r14, r22
     a2a:	ff 24       	eor	r15, r15
     a2c:	e0 9e       	mul	r14, r16
     a2e:	b0 01       	movw	r22, r0
     a30:	e1 9e       	mul	r14, r17
     a32:	70 0d       	add	r23, r0
     a34:	f0 9e       	mul	r15, r16
     a36:	70 0d       	add	r23, r0
     a38:	11 24       	eor	r1, r1
     a3a:	80 e0       	ldi	r24, 0x00	; 0
     a3c:	90 e0       	ldi	r25, 0x00	; 0
     a3e:	0e 94 2f 01 	call	0x25e	; 0x25e <__floatunsisf>
     a42:	9b 01       	movw	r18, r22
     a44:	ac 01       	movw	r20, r24
     a46:	c6 01       	movw	r24, r12
     a48:	b5 01       	movw	r22, r10
     a4a:	0e 94 71 00 	call	0xe2	; 0xe2 <__gesf2>
     a4e:	87 ff       	sbrs	r24, 7
     a50:	15 c0       	rjmp	.+42     	; 0xa7c <MADC_u8Map+0x9e>
     a52:	08 94       	sec
     a54:	e1 08       	sbc	r14, r1
     a56:	f1 08       	sbc	r15, r1
     a58:	b7 01       	movw	r22, r14
     a5a:	88 27       	eor	r24, r24
     a5c:	77 fd       	sbrc	r23, 7
     a5e:	80 95       	com	r24
     a60:	98 2f       	mov	r25, r24
     a62:	08 94       	sec
     a64:	e1 1c       	adc	r14, r1
     a66:	f1 1c       	adc	r15, r1
     a68:	0e 94 d1 00 	call	0x1a2	; 0x1a2 <__floatsisf>
     a6c:	9b 01       	movw	r18, r22
     a6e:	ac 01       	movw	r20, r24
     a70:	c6 01       	movw	r24, r12
     a72:	b5 01       	movw	r22, r10
     a74:	0e 94 a1 00 	call	0x142	; 0x142 <__lesf2>
     a78:	18 16       	cp	r1, r24
     a7a:	1c f0       	brlt	.+6      	; 0xa82 <MADC_u8Map+0xa4>
     a7c:	80 e0       	ldi	r24, 0x00	; 0
     a7e:	90 e0       	ldi	r25, 0x00	; 0
     a80:	16 c1       	rjmp	.+556    	; 0xcae <MADC_u8Map+0x2d0>
     a82:	87 01       	movw	r16, r14
     a84:	00 0f       	add	r16, r16
     a86:	11 1f       	adc	r17, r17
     a88:	b7 01       	movw	r22, r14
     a8a:	88 27       	eor	r24, r24
     a8c:	77 fd       	sbrc	r23, 7
     a8e:	80 95       	com	r24
     a90:	98 2f       	mov	r25, r24
     a92:	0e 94 d1 00 	call	0x1a2	; 0x1a2 <__floatsisf>
     a96:	9b 01       	movw	r18, r22
     a98:	ac 01       	movw	r20, r24
     a9a:	c6 01       	movw	r24, r12
     a9c:	b5 01       	movw	r22, r10
     a9e:	0e 94 71 00 	call	0xe2	; 0xe2 <__gesf2>
     aa2:	87 ff       	sbrs	r24, 7
     aa4:	13 c0       	rjmp	.+38     	; 0xacc <MADC_u8Map+0xee>
     aa6:	01 50       	subi	r16, 0x01	; 1
     aa8:	10 40       	sbci	r17, 0x00	; 0
     aaa:	b8 01       	movw	r22, r16
     aac:	88 27       	eor	r24, r24
     aae:	77 fd       	sbrc	r23, 7
     ab0:	80 95       	com	r24
     ab2:	98 2f       	mov	r25, r24
     ab4:	0f 5f       	subi	r16, 0xFF	; 255
     ab6:	1f 4f       	sbci	r17, 0xFF	; 255
     ab8:	0e 94 d1 00 	call	0x1a2	; 0x1a2 <__floatsisf>
     abc:	9b 01       	movw	r18, r22
     abe:	ac 01       	movw	r20, r24
     ac0:	c6 01       	movw	r24, r12
     ac2:	b5 01       	movw	r22, r10
     ac4:	0e 94 a1 00 	call	0x142	; 0x142 <__lesf2>
     ac8:	18 16       	cp	r1, r24
     aca:	1c f0       	brlt	.+6      	; 0xad2 <MADC_u8Map+0xf4>
     acc:	81 e0       	ldi	r24, 0x01	; 1
     ace:	90 e0       	ldi	r25, 0x00	; 0
     ad0:	ee c0       	rjmp	.+476    	; 0xcae <MADC_u8Map+0x2d0>
     ad2:	e8 01       	movw	r28, r16
     ad4:	ce 0d       	add	r28, r14
     ad6:	df 1d       	adc	r29, r15
     ad8:	b8 01       	movw	r22, r16
     ada:	88 27       	eor	r24, r24
     adc:	77 fd       	sbrc	r23, 7
     ade:	80 95       	com	r24
     ae0:	98 2f       	mov	r25, r24
     ae2:	0e 94 d1 00 	call	0x1a2	; 0x1a2 <__floatsisf>
     ae6:	9b 01       	movw	r18, r22
     ae8:	ac 01       	movw	r20, r24
     aea:	c6 01       	movw	r24, r12
     aec:	b5 01       	movw	r22, r10
     aee:	0e 94 71 00 	call	0xe2	; 0xe2 <__gesf2>
     af2:	87 ff       	sbrs	r24, 7
     af4:	11 c0       	rjmp	.+34     	; 0xb18 <MADC_u8Map+0x13a>
     af6:	be 01       	movw	r22, r28
     af8:	61 50       	subi	r22, 0x01	; 1
     afa:	70 40       	sbci	r23, 0x00	; 0
     afc:	88 27       	eor	r24, r24
     afe:	77 fd       	sbrc	r23, 7
     b00:	80 95       	com	r24
     b02:	98 2f       	mov	r25, r24
     b04:	0e 94 d1 00 	call	0x1a2	; 0x1a2 <__floatsisf>
     b08:	9b 01       	movw	r18, r22
     b0a:	ac 01       	movw	r20, r24
     b0c:	c6 01       	movw	r24, r12
     b0e:	b5 01       	movw	r22, r10
     b10:	0e 94 a1 00 	call	0x142	; 0x142 <__lesf2>
     b14:	18 16       	cp	r1, r24
     b16:	1c f0       	brlt	.+6      	; 0xb1e <MADC_u8Map+0x140>
     b18:	82 e0       	ldi	r24, 0x02	; 2
     b1a:	90 e0       	ldi	r25, 0x00	; 0
     b1c:	c8 c0       	rjmp	.+400    	; 0xcae <MADC_u8Map+0x2d0>
     b1e:	87 01       	movw	r16, r14
     b20:	00 0f       	add	r16, r16
     b22:	11 1f       	adc	r17, r17
     b24:	00 0f       	add	r16, r16
     b26:	11 1f       	adc	r17, r17
     b28:	be 01       	movw	r22, r28
     b2a:	88 27       	eor	r24, r24
     b2c:	77 fd       	sbrc	r23, 7
     b2e:	80 95       	com	r24
     b30:	98 2f       	mov	r25, r24
     b32:	0e 94 d1 00 	call	0x1a2	; 0x1a2 <__floatsisf>
     b36:	9b 01       	movw	r18, r22
     b38:	ac 01       	movw	r20, r24
     b3a:	c6 01       	movw	r24, r12
     b3c:	b5 01       	movw	r22, r10
     b3e:	0e 94 71 00 	call	0xe2	; 0xe2 <__gesf2>
     b42:	87 ff       	sbrs	r24, 7
     b44:	13 c0       	rjmp	.+38     	; 0xb6c <MADC_u8Map+0x18e>
     b46:	01 50       	subi	r16, 0x01	; 1
     b48:	10 40       	sbci	r17, 0x00	; 0
     b4a:	b8 01       	movw	r22, r16
     b4c:	88 27       	eor	r24, r24
     b4e:	77 fd       	sbrc	r23, 7
     b50:	80 95       	com	r24
     b52:	98 2f       	mov	r25, r24
     b54:	0f 5f       	subi	r16, 0xFF	; 255
     b56:	1f 4f       	sbci	r17, 0xFF	; 255
     b58:	0e 94 d1 00 	call	0x1a2	; 0x1a2 <__floatsisf>
     b5c:	9b 01       	movw	r18, r22
     b5e:	ac 01       	movw	r20, r24
     b60:	c6 01       	movw	r24, r12
     b62:	b5 01       	movw	r22, r10
     b64:	0e 94 a1 00 	call	0x142	; 0x142 <__lesf2>
     b68:	18 16       	cp	r1, r24
     b6a:	1c f0       	brlt	.+6      	; 0xb72 <MADC_u8Map+0x194>
     b6c:	83 e0       	ldi	r24, 0x03	; 3
     b6e:	90 e0       	ldi	r25, 0x00	; 0
     b70:	9e c0       	rjmp	.+316    	; 0xcae <MADC_u8Map+0x2d0>
     b72:	48 01       	movw	r8, r16
     b74:	8e 0c       	add	r8, r14
     b76:	9f 1c       	adc	r9, r15
     b78:	b8 01       	movw	r22, r16
     b7a:	88 27       	eor	r24, r24
     b7c:	77 fd       	sbrc	r23, 7
     b7e:	80 95       	com	r24
     b80:	98 2f       	mov	r25, r24
     b82:	0e 94 d1 00 	call	0x1a2	; 0x1a2 <__floatsisf>
     b86:	9b 01       	movw	r18, r22
     b88:	ac 01       	movw	r20, r24
     b8a:	c6 01       	movw	r24, r12
     b8c:	b5 01       	movw	r22, r10
     b8e:	0e 94 71 00 	call	0xe2	; 0xe2 <__gesf2>
     b92:	87 ff       	sbrs	r24, 7
     b94:	11 c0       	rjmp	.+34     	; 0xbb8 <MADC_u8Map+0x1da>
     b96:	b4 01       	movw	r22, r8
     b98:	61 50       	subi	r22, 0x01	; 1
     b9a:	70 40       	sbci	r23, 0x00	; 0
     b9c:	88 27       	eor	r24, r24
     b9e:	77 fd       	sbrc	r23, 7
     ba0:	80 95       	com	r24
     ba2:	98 2f       	mov	r25, r24
     ba4:	0e 94 d1 00 	call	0x1a2	; 0x1a2 <__floatsisf>
     ba8:	9b 01       	movw	r18, r22
     baa:	ac 01       	movw	r20, r24
     bac:	c6 01       	movw	r24, r12
     bae:	b5 01       	movw	r22, r10
     bb0:	0e 94 a1 00 	call	0x142	; 0x142 <__lesf2>
     bb4:	18 16       	cp	r1, r24
     bb6:	1c f0       	brlt	.+6      	; 0xbbe <MADC_u8Map+0x1e0>
     bb8:	84 e0       	ldi	r24, 0x04	; 4
     bba:	90 e0       	ldi	r25, 0x00	; 0
     bbc:	78 c0       	rjmp	.+240    	; 0xcae <MADC_u8Map+0x2d0>
     bbe:	e7 01       	movw	r28, r14
     bc0:	cc 0f       	add	r28, r28
     bc2:	dd 1f       	adc	r29, r29
     bc4:	ce 0d       	add	r28, r14
     bc6:	df 1d       	adc	r29, r15
     bc8:	cc 0f       	add	r28, r28
     bca:	dd 1f       	adc	r29, r29
     bcc:	b4 01       	movw	r22, r8
     bce:	88 27       	eor	r24, r24
     bd0:	77 fd       	sbrc	r23, 7
     bd2:	80 95       	com	r24
     bd4:	98 2f       	mov	r25, r24
     bd6:	0e 94 d1 00 	call	0x1a2	; 0x1a2 <__floatsisf>
     bda:	9b 01       	movw	r18, r22
     bdc:	ac 01       	movw	r20, r24
     bde:	c6 01       	movw	r24, r12
     be0:	b5 01       	movw	r22, r10
     be2:	0e 94 71 00 	call	0xe2	; 0xe2 <__gesf2>
     be6:	87 ff       	sbrs	r24, 7
     be8:	11 c0       	rjmp	.+34     	; 0xc0c <MADC_u8Map+0x22e>
     bea:	be 01       	movw	r22, r28
     bec:	61 50       	subi	r22, 0x01	; 1
     bee:	70 40       	sbci	r23, 0x00	; 0
     bf0:	88 27       	eor	r24, r24
     bf2:	77 fd       	sbrc	r23, 7
     bf4:	80 95       	com	r24
     bf6:	98 2f       	mov	r25, r24
     bf8:	0e 94 d1 00 	call	0x1a2	; 0x1a2 <__floatsisf>
     bfc:	9b 01       	movw	r18, r22
     bfe:	ac 01       	movw	r20, r24
     c00:	c6 01       	movw	r24, r12
     c02:	b5 01       	movw	r22, r10
     c04:	0e 94 a1 00 	call	0x142	; 0x142 <__lesf2>
     c08:	18 16       	cp	r1, r24
     c0a:	1c f0       	brlt	.+6      	; 0xc12 <MADC_u8Map+0x234>
     c0c:	85 e0       	ldi	r24, 0x05	; 5
     c0e:	90 e0       	ldi	r25, 0x00	; 0
     c10:	4e c0       	rjmp	.+156    	; 0xcae <MADC_u8Map+0x2d0>
     c12:	47 01       	movw	r8, r14
     c14:	83 e0       	ldi	r24, 0x03	; 3
     c16:	88 0c       	add	r8, r8
     c18:	99 1c       	adc	r9, r9
     c1a:	8a 95       	dec	r24
     c1c:	e1 f7       	brne	.-8      	; 0xc16 <MADC_u8Map+0x238>
     c1e:	84 01       	movw	r16, r8
     c20:	0e 19       	sub	r16, r14
     c22:	1f 09       	sbc	r17, r15
     c24:	be 01       	movw	r22, r28
     c26:	88 27       	eor	r24, r24
     c28:	77 fd       	sbrc	r23, 7
     c2a:	80 95       	com	r24
     c2c:	98 2f       	mov	r25, r24
     c2e:	0e 94 d1 00 	call	0x1a2	; 0x1a2 <__floatsisf>
     c32:	9b 01       	movw	r18, r22
     c34:	ac 01       	movw	r20, r24
     c36:	c6 01       	movw	r24, r12
     c38:	b5 01       	movw	r22, r10
     c3a:	0e 94 71 00 	call	0xe2	; 0xe2 <__gesf2>
     c3e:	87 ff       	sbrs	r24, 7
     c40:	11 c0       	rjmp	.+34     	; 0xc64 <MADC_u8Map+0x286>
     c42:	b8 01       	movw	r22, r16
     c44:	61 50       	subi	r22, 0x01	; 1
     c46:	70 40       	sbci	r23, 0x00	; 0
     c48:	88 27       	eor	r24, r24
     c4a:	77 fd       	sbrc	r23, 7
     c4c:	80 95       	com	r24
     c4e:	98 2f       	mov	r25, r24
     c50:	0e 94 d1 00 	call	0x1a2	; 0x1a2 <__floatsisf>
     c54:	9b 01       	movw	r18, r22
     c56:	ac 01       	movw	r20, r24
     c58:	c6 01       	movw	r24, r12
     c5a:	b5 01       	movw	r22, r10
     c5c:	0e 94 a1 00 	call	0x142	; 0x142 <__lesf2>
     c60:	18 16       	cp	r1, r24
     c62:	1c f0       	brlt	.+6      	; 0xc6a <MADC_u8Map+0x28c>
     c64:	86 e0       	ldi	r24, 0x06	; 6
     c66:	90 e0       	ldi	r25, 0x00	; 0
     c68:	22 c0       	rjmp	.+68     	; 0xcae <MADC_u8Map+0x2d0>
     c6a:	b8 01       	movw	r22, r16
     c6c:	88 27       	eor	r24, r24
     c6e:	77 fd       	sbrc	r23, 7
     c70:	80 95       	com	r24
     c72:	98 2f       	mov	r25, r24
     c74:	0e 94 d1 00 	call	0x1a2	; 0x1a2 <__floatsisf>
     c78:	9b 01       	movw	r18, r22
     c7a:	ac 01       	movw	r20, r24
     c7c:	c6 01       	movw	r24, r12
     c7e:	b5 01       	movw	r22, r10
     c80:	0e 94 71 00 	call	0xe2	; 0xe2 <__gesf2>
     c84:	87 ff       	sbrs	r24, 7
     c86:	11 c0       	rjmp	.+34     	; 0xcaa <MADC_u8Map+0x2cc>
     c88:	b4 01       	movw	r22, r8
     c8a:	61 50       	subi	r22, 0x01	; 1
     c8c:	70 40       	sbci	r23, 0x00	; 0
     c8e:	88 27       	eor	r24, r24
     c90:	77 fd       	sbrc	r23, 7
     c92:	80 95       	com	r24
     c94:	98 2f       	mov	r25, r24
     c96:	0e 94 d1 00 	call	0x1a2	; 0x1a2 <__floatsisf>
     c9a:	9b 01       	movw	r18, r22
     c9c:	ac 01       	movw	r20, r24
     c9e:	c6 01       	movw	r24, r12
     ca0:	b5 01       	movw	r22, r10
     ca2:	0e 94 a1 00 	call	0x142	; 0x142 <__lesf2>
     ca6:	18 16       	cp	r1, r24
     ca8:	14 f0       	brlt	.+4      	; 0xcae <MADC_u8Map+0x2d0>
     caa:	87 e0       	ldi	r24, 0x07	; 7
     cac:	90 e0       	ldi	r25, 0x00	; 0
     cae:	df 91       	pop	r29
     cb0:	cf 91       	pop	r28
     cb2:	1f 91       	pop	r17
     cb4:	0f 91       	pop	r16
     cb6:	ff 90       	pop	r15
     cb8:	ef 90       	pop	r14
     cba:	df 90       	pop	r13
     cbc:	cf 90       	pop	r12
     cbe:	bf 90       	pop	r11
     cc0:	af 90       	pop	r10
     cc2:	9f 90       	pop	r9
     cc4:	8f 90       	pop	r8
     cc6:	08 95       	ret

00000cc8 <MADC_vStartConvertion>:
     cc8:	97 b1       	in	r25, 0x07	; 7
     cca:	87 70       	andi	r24, 0x07	; 7
     ccc:	90 7e       	andi	r25, 0xE0	; 224
     cce:	89 2b       	or	r24, r25
     cd0:	87 b9       	out	0x07, r24	; 7
     cd2:	36 9a       	sbi	0x06, 6	; 6
     cd4:	08 95       	ret

00000cd6 <MADC_vGetADCData>:
     cd6:	24 b1       	in	r18, 0x04	; 4
     cd8:	35 b1       	in	r19, 0x05	; 5
     cda:	c9 01       	movw	r24, r18
     cdc:	08 95       	ret

00000cde <__vector_16>:
     cde:	1f 92       	push	r1
     ce0:	0f 92       	push	r0
     ce2:	0f b6       	in	r0, 0x3f	; 63
     ce4:	0f 92       	push	r0
     ce6:	11 24       	eor	r1, r1
     ce8:	0f 90       	pop	r0
     cea:	0f be       	out	0x3f, r0	; 63
     cec:	0f 90       	pop	r0
     cee:	1f 90       	pop	r1
     cf0:	18 95       	reti

00000cf2 <SSD_vTurnOff>:
     cf2:	81 e0       	ldi	r24, 0x01	; 1
     cf4:	6f ef       	ldi	r22, 0xFF	; 255
     cf6:	0e 94 b4 04 	call	0x968	; 0x968 <DIO_vSetPortVal>
     cfa:	08 95       	ret

00000cfc <SSD_vDisplayNum>:
     cfc:	8a 30       	cpi	r24, 0x0A	; 10
     cfe:	48 f4       	brcc	.+18     	; 0xd12 <SSD_vDisplayNum+0x16>
     d00:	e8 2f       	mov	r30, r24
     d02:	f0 e0       	ldi	r31, 0x00	; 0
     d04:	e0 5a       	subi	r30, 0xA0	; 160
     d06:	fe 4f       	sbci	r31, 0xFE	; 254
     d08:	60 81       	ld	r22, Z
     d0a:	60 95       	com	r22
     d0c:	81 e0       	ldi	r24, 0x01	; 1
     d0e:	0e 94 b4 04 	call	0x968	; 0x968 <DIO_vSetPortVal>
     d12:	08 95       	ret

00000d14 <SSD_vInit>:
     d14:	81 e0       	ldi	r24, 0x01	; 1
     d16:	6f ef       	ldi	r22, 0xFF	; 255
     d18:	0e 94 a3 04 	call	0x946	; 0x946 <DIO_vSetPortDir>
     d1c:	08 95       	ret

00000d1e <HLCD_vSendData>:
     d1e:	0f 93       	push	r16
     d20:	1f 93       	push	r17
     d22:	18 2f       	mov	r17, r24
     d24:	82 e0       	ldi	r24, 0x02	; 2
     d26:	60 e0       	ldi	r22, 0x00	; 0
     d28:	41 e0       	ldi	r20, 0x01	; 1
     d2a:	0e 94 10 04 	call	0x820	; 0x820 <DIO_vSetPinVal>
     d2e:	82 e0       	ldi	r24, 0x02	; 2
     d30:	61 e0       	ldi	r22, 0x01	; 1
     d32:	40 e0       	ldi	r20, 0x00	; 0
     d34:	0e 94 10 04 	call	0x820	; 0x820 <DIO_vSetPinVal>
     d38:	83 e0       	ldi	r24, 0x03	; 3
     d3a:	61 2f       	mov	r22, r17
     d3c:	0e 94 b4 04 	call	0x968	; 0x968 <DIO_vSetPortVal>
     d40:	82 e0       	ldi	r24, 0x02	; 2
     d42:	62 e0       	ldi	r22, 0x02	; 2
     d44:	41 e0       	ldi	r20, 0x01	; 1
     d46:	0e 94 10 04 	call	0x820	; 0x820 <DIO_vSetPinVal>
     d4a:	00 ed       	ldi	r16, 0xD0	; 208
     d4c:	17 e0       	ldi	r17, 0x07	; 7
     d4e:	c8 01       	movw	r24, r16
     d50:	01 97       	sbiw	r24, 0x01	; 1
     d52:	f1 f7       	brne	.-4      	; 0xd50 <HLCD_vSendData+0x32>
     d54:	82 e0       	ldi	r24, 0x02	; 2
     d56:	62 e0       	ldi	r22, 0x02	; 2
     d58:	40 e0       	ldi	r20, 0x00	; 0
     d5a:	0e 94 10 04 	call	0x820	; 0x820 <DIO_vSetPinVal>
     d5e:	c8 01       	movw	r24, r16
     d60:	01 97       	sbiw	r24, 0x01	; 1
     d62:	f1 f7       	brne	.-4      	; 0xd60 <HLCD_vSendData+0x42>
     d64:	1f 91       	pop	r17
     d66:	0f 91       	pop	r16
     d68:	08 95       	ret

00000d6a <HLCD_vDisplayCustomChar>:
     d6a:	88 30       	cpi	r24, 0x08	; 8
     d6c:	10 f4       	brcc	.+4      	; 0xd72 <HLCD_vDisplayCustomChar+0x8>
     d6e:	0e 94 8f 06 	call	0xd1e	; 0xd1e <HLCD_vSendData>
     d72:	08 95       	ret

00000d74 <HLCD_vPrintNumber>:
     d74:	8f 92       	push	r8
     d76:	9f 92       	push	r9
     d78:	bf 92       	push	r11
     d7a:	cf 92       	push	r12
     d7c:	df 92       	push	r13
     d7e:	ef 92       	push	r14
     d80:	ff 92       	push	r15
     d82:	0f 93       	push	r16
     d84:	1f 93       	push	r17
     d86:	df 93       	push	r29
     d88:	cf 93       	push	r28
     d8a:	cd b7       	in	r28, 0x3d	; 61
     d8c:	de b7       	in	r29, 0x3e	; 62
     d8e:	2a 97       	sbiw	r28, 0x0a	; 10
     d90:	0f b6       	in	r0, 0x3f	; 63
     d92:	f8 94       	cli
     d94:	de bf       	out	0x3e, r29	; 62
     d96:	0f be       	out	0x3f, r0	; 63
     d98:	cd bf       	out	0x3d, r28	; 61
     d9a:	6b 01       	movw	r12, r22
     d9c:	7c 01       	movw	r14, r24
     d9e:	fe 01       	movw	r30, r28
     da0:	31 96       	adiw	r30, 0x01	; 1
     da2:	8a e0       	ldi	r24, 0x0A	; 10
     da4:	df 01       	movw	r26, r30
     da6:	1d 92       	st	X+, r1
     da8:	8a 95       	dec	r24
     daa:	e9 f7       	brne	.-6      	; 0xda6 <HLCD_vPrintNumber+0x32>
     dac:	bb 24       	eor	r11, r11
     dae:	4f 01       	movw	r8, r30
     db0:	1a c0       	rjmp	.+52     	; 0xde6 <HLCD_vPrintNumber+0x72>
     db2:	84 01       	movw	r16, r8
     db4:	0b 0d       	add	r16, r11
     db6:	11 1d       	adc	r17, r1
     db8:	c7 01       	movw	r24, r14
     dba:	b6 01       	movw	r22, r12
     dbc:	2a e0       	ldi	r18, 0x0A	; 10
     dbe:	30 e0       	ldi	r19, 0x00	; 0
     dc0:	40 e0       	ldi	r20, 0x00	; 0
     dc2:	50 e0       	ldi	r21, 0x00	; 0
     dc4:	0e 94 51 08 	call	0x10a2	; 0x10a2 <__divmodsi4>
     dc8:	f8 01       	movw	r30, r16
     dca:	60 83       	st	Z, r22
     dcc:	b3 94       	inc	r11
     dce:	c7 01       	movw	r24, r14
     dd0:	b6 01       	movw	r22, r12
     dd2:	2a e0       	ldi	r18, 0x0A	; 10
     dd4:	30 e0       	ldi	r19, 0x00	; 0
     dd6:	40 e0       	ldi	r20, 0x00	; 0
     dd8:	50 e0       	ldi	r21, 0x00	; 0
     dda:	0e 94 51 08 	call	0x10a2	; 0x10a2 <__divmodsi4>
     dde:	c9 01       	movw	r24, r18
     de0:	da 01       	movw	r26, r20
     de2:	6c 01       	movw	r12, r24
     de4:	7d 01       	movw	r14, r26
     de6:	1c 14       	cp	r1, r12
     de8:	1d 04       	cpc	r1, r13
     dea:	1e 04       	cpc	r1, r14
     dec:	1f 04       	cpc	r1, r15
     dee:	0c f3       	brlt	.-62     	; 0xdb2 <HLCD_vPrintNumber+0x3e>
     df0:	89 81       	ldd	r24, Y+1	; 0x01
     df2:	80 5d       	subi	r24, 0xD0	; 208
     df4:	0e 94 8f 06 	call	0xd1e	; 0xd1e <HLCD_vSendData>
     df8:	2a 96       	adiw	r28, 0x0a	; 10
     dfa:	0f b6       	in	r0, 0x3f	; 63
     dfc:	f8 94       	cli
     dfe:	de bf       	out	0x3e, r29	; 62
     e00:	0f be       	out	0x3f, r0	; 63
     e02:	cd bf       	out	0x3d, r28	; 61
     e04:	cf 91       	pop	r28
     e06:	df 91       	pop	r29
     e08:	1f 91       	pop	r17
     e0a:	0f 91       	pop	r16
     e0c:	ff 90       	pop	r15
     e0e:	ef 90       	pop	r14
     e10:	df 90       	pop	r13
     e12:	cf 90       	pop	r12
     e14:	bf 90       	pop	r11
     e16:	9f 90       	pop	r9
     e18:	8f 90       	pop	r8
     e1a:	08 95       	ret

00000e1c <HLCD_vPrintString>:
     e1c:	1f 93       	push	r17
     e1e:	cf 93       	push	r28
     e20:	df 93       	push	r29
     e22:	ec 01       	movw	r28, r24
     e24:	10 e0       	ldi	r17, 0x00	; 0
     e26:	03 c0       	rjmp	.+6      	; 0xe2e <HLCD_vPrintString+0x12>
     e28:	0e 94 8f 06 	call	0xd1e	; 0xd1e <HLCD_vSendData>
     e2c:	1f 5f       	subi	r17, 0xFF	; 255
     e2e:	fe 01       	movw	r30, r28
     e30:	e1 0f       	add	r30, r17
     e32:	f1 1d       	adc	r31, r1
     e34:	80 81       	ld	r24, Z
     e36:	88 23       	and	r24, r24
     e38:	b9 f7       	brne	.-18     	; 0xe28 <HLCD_vPrintString+0xc>
     e3a:	df 91       	pop	r29
     e3c:	cf 91       	pop	r28
     e3e:	1f 91       	pop	r17
     e40:	08 95       	ret

00000e42 <HLCD_vSendCommand>:
     e42:	0f 93       	push	r16
     e44:	1f 93       	push	r17
     e46:	18 2f       	mov	r17, r24
     e48:	82 e0       	ldi	r24, 0x02	; 2
     e4a:	60 e0       	ldi	r22, 0x00	; 0
     e4c:	40 e0       	ldi	r20, 0x00	; 0
     e4e:	0e 94 10 04 	call	0x820	; 0x820 <DIO_vSetPinVal>
     e52:	82 e0       	ldi	r24, 0x02	; 2
     e54:	61 e0       	ldi	r22, 0x01	; 1
     e56:	40 e0       	ldi	r20, 0x00	; 0
     e58:	0e 94 10 04 	call	0x820	; 0x820 <DIO_vSetPinVal>
     e5c:	83 e0       	ldi	r24, 0x03	; 3
     e5e:	61 2f       	mov	r22, r17
     e60:	0e 94 b4 04 	call	0x968	; 0x968 <DIO_vSetPortVal>
     e64:	82 e0       	ldi	r24, 0x02	; 2
     e66:	62 e0       	ldi	r22, 0x02	; 2
     e68:	41 e0       	ldi	r20, 0x01	; 1
     e6a:	0e 94 10 04 	call	0x820	; 0x820 <DIO_vSetPinVal>
     e6e:	00 ed       	ldi	r16, 0xD0	; 208
     e70:	17 e0       	ldi	r17, 0x07	; 7
     e72:	c8 01       	movw	r24, r16
     e74:	01 97       	sbiw	r24, 0x01	; 1
     e76:	f1 f7       	brne	.-4      	; 0xe74 <HLCD_vSendCommand+0x32>
     e78:	82 e0       	ldi	r24, 0x02	; 2
     e7a:	62 e0       	ldi	r22, 0x02	; 2
     e7c:	40 e0       	ldi	r20, 0x00	; 0
     e7e:	0e 94 10 04 	call	0x820	; 0x820 <DIO_vSetPinVal>
     e82:	c8 01       	movw	r24, r16
     e84:	01 97       	sbiw	r24, 0x01	; 1
     e86:	f1 f7       	brne	.-4      	; 0xe84 <HLCD_vSendCommand+0x42>
     e88:	1f 91       	pop	r17
     e8a:	0f 91       	pop	r16
     e8c:	08 95       	ret

00000e8e <HLCD_vClearScreen>:
     e8e:	81 e0       	ldi	r24, 0x01	; 1
     e90:	0e 94 21 07 	call	0xe42	; 0xe42 <HLCD_vSendCommand>
     e94:	08 95       	ret

00000e96 <HLCD_vSaveCustomChar>:
     e96:	0f 93       	push	r16
     e98:	1f 93       	push	r17
     e9a:	cf 93       	push	r28
     e9c:	df 93       	push	r29
     e9e:	8b 01       	movw	r16, r22
     ea0:	88 30       	cpi	r24, 0x08	; 8
     ea2:	30 f4       	brcc	.+12     	; 0xeb0 <HLCD_vSaveCustomChar+0x1a>
     ea4:	88 0f       	add	r24, r24
     ea6:	88 0f       	add	r24, r24
     ea8:	88 0f       	add	r24, r24
     eaa:	80 5c       	subi	r24, 0xC0	; 192
     eac:	0e 94 21 07 	call	0xe42	; 0xe42 <HLCD_vSendCommand>
     eb0:	c0 e0       	ldi	r28, 0x00	; 0
     eb2:	d0 e0       	ldi	r29, 0x00	; 0
     eb4:	f8 01       	movw	r30, r16
     eb6:	ec 0f       	add	r30, r28
     eb8:	fd 1f       	adc	r31, r29
     eba:	80 81       	ld	r24, Z
     ebc:	0e 94 8f 06 	call	0xd1e	; 0xd1e <HLCD_vSendData>
     ec0:	21 96       	adiw	r28, 0x01	; 1
     ec2:	c8 30       	cpi	r28, 0x08	; 8
     ec4:	d1 05       	cpc	r29, r1
     ec6:	b1 f7       	brne	.-20     	; 0xeb4 <HLCD_vSaveCustomChar+0x1e>
     ec8:	80 e8       	ldi	r24, 0x80	; 128
     eca:	0e 94 21 07 	call	0xe42	; 0xe42 <HLCD_vSendCommand>
     ece:	df 91       	pop	r29
     ed0:	cf 91       	pop	r28
     ed2:	1f 91       	pop	r17
     ed4:	0f 91       	pop	r16
     ed6:	08 95       	ret

00000ed8 <HLCD_vSetCursorPosition>:
     ed8:	82 30       	cpi	r24, 0x02	; 2
     eda:	80 f4       	brcc	.+32     	; 0xefc <HLCD_vSetCursorPosition+0x24>
     edc:	60 31       	cpi	r22, 0x10	; 16
     ede:	70 f4       	brcc	.+28     	; 0xefc <HLCD_vSetCursorPosition+0x24>
     ee0:	88 23       	and	r24, r24
     ee2:	19 f0       	breq	.+6      	; 0xeea <HLCD_vSetCursorPosition+0x12>
     ee4:	81 30       	cpi	r24, 0x01	; 1
     ee6:	51 f4       	brne	.+20     	; 0xefc <HLCD_vSetCursorPosition+0x24>
     ee8:	05 c0       	rjmp	.+10     	; 0xef4 <HLCD_vSetCursorPosition+0x1c>
     eea:	86 2f       	mov	r24, r22
     eec:	80 58       	subi	r24, 0x80	; 128
     eee:	0e 94 21 07 	call	0xe42	; 0xe42 <HLCD_vSendCommand>
     ef2:	08 95       	ret
     ef4:	86 2f       	mov	r24, r22
     ef6:	80 54       	subi	r24, 0x40	; 64
     ef8:	0e 94 21 07 	call	0xe42	; 0xe42 <HLCD_vSendCommand>
     efc:	08 95       	ret

00000efe <HLCD_vInit>:
     efe:	0f 93       	push	r16
     f00:	1f 93       	push	r17
     f02:	82 e0       	ldi	r24, 0x02	; 2
     f04:	60 e0       	ldi	r22, 0x00	; 0
     f06:	41 e0       	ldi	r20, 0x01	; 1
     f08:	0e 94 9d 03 	call	0x73a	; 0x73a <DIO_vSetPinDir>
     f0c:	82 e0       	ldi	r24, 0x02	; 2
     f0e:	61 e0       	ldi	r22, 0x01	; 1
     f10:	41 e0       	ldi	r20, 0x01	; 1
     f12:	0e 94 9d 03 	call	0x73a	; 0x73a <DIO_vSetPinDir>
     f16:	82 e0       	ldi	r24, 0x02	; 2
     f18:	62 e0       	ldi	r22, 0x02	; 2
     f1a:	41 e0       	ldi	r20, 0x01	; 1
     f1c:	0e 94 9d 03 	call	0x73a	; 0x73a <DIO_vSetPinDir>
     f20:	83 e0       	ldi	r24, 0x03	; 3
     f22:	6f ef       	ldi	r22, 0xFF	; 255
     f24:	0e 94 a3 04 	call	0x946	; 0x946 <DIO_vSetPortDir>
     f28:	84 ef       	ldi	r24, 0xF4	; 244
     f2a:	91 e0       	ldi	r25, 0x01	; 1
     f2c:	28 ec       	ldi	r18, 0xC8	; 200
     f2e:	30 e0       	ldi	r19, 0x00	; 0
     f30:	f9 01       	movw	r30, r18
     f32:	31 97       	sbiw	r30, 0x01	; 1
     f34:	f1 f7       	brne	.-4      	; 0xf32 <HLCD_vInit+0x34>
     f36:	01 97       	sbiw	r24, 0x01	; 1
     f38:	d9 f7       	brne	.-10     	; 0xf30 <HLCD_vInit+0x32>
     f3a:	88 e3       	ldi	r24, 0x38	; 56
     f3c:	0e 94 21 07 	call	0xe42	; 0xe42 <HLCD_vSendCommand>
     f40:	00 ed       	ldi	r16, 0xD0	; 208
     f42:	17 e0       	ldi	r17, 0x07	; 7
     f44:	c8 01       	movw	r24, r16
     f46:	01 97       	sbiw	r24, 0x01	; 1
     f48:	f1 f7       	brne	.-4      	; 0xf46 <HLCD_vInit+0x48>
     f4a:	8c e0       	ldi	r24, 0x0C	; 12
     f4c:	0e 94 21 07 	call	0xe42	; 0xe42 <HLCD_vSendCommand>
     f50:	c8 01       	movw	r24, r16
     f52:	01 97       	sbiw	r24, 0x01	; 1
     f54:	f1 f7       	brne	.-4      	; 0xf52 <HLCD_vInit+0x54>
     f56:	81 e0       	ldi	r24, 0x01	; 1
     f58:	0e 94 21 07 	call	0xe42	; 0xe42 <HLCD_vSendCommand>
     f5c:	80 ea       	ldi	r24, 0xA0	; 160
     f5e:	9f e0       	ldi	r25, 0x0F	; 15
     f60:	01 97       	sbiw	r24, 0x01	; 1
     f62:	f1 f7       	brne	.-4      	; 0xf60 <HLCD_vInit+0x62>
     f64:	86 e0       	ldi	r24, 0x06	; 6
     f66:	0e 94 21 07 	call	0xe42	; 0xe42 <HLCD_vSendCommand>
     f6a:	c8 01       	movw	r24, r16
     f6c:	01 97       	sbiw	r24, 0x01	; 1
     f6e:	f1 f7       	brne	.-4      	; 0xf6c <HLCD_vInit+0x6e>
     f70:	1f 91       	pop	r17
     f72:	0f 91       	pop	r16
     f74:	08 95       	ret

00000f76 <KPD_u8GetPressedKey>:
     f76:	8f 92       	push	r8
     f78:	9f 92       	push	r9
     f7a:	bf 92       	push	r11
     f7c:	cf 92       	push	r12
     f7e:	df 92       	push	r13
     f80:	ef 92       	push	r14
     f82:	ff 92       	push	r15
     f84:	0f 93       	push	r16
     f86:	1f 93       	push	r17
     f88:	cf 93       	push	r28
     f8a:	df 93       	push	r29
     f8c:	6c 01       	movw	r12, r24
     f8e:	ee 24       	eor	r14, r14
     f90:	c0 e0       	ldi	r28, 0x00	; 0
     f92:	d0 e0       	ldi	r29, 0x00	; 0
     f94:	90 e2       	ldi	r25, 0x20	; 32
     f96:	89 2e       	mov	r8, r25
     f98:	9e e4       	ldi	r25, 0x4E	; 78
     f9a:	99 2e       	mov	r9, r25
     f9c:	bc 2e       	mov	r11, r28
     f9e:	81 e0       	ldi	r24, 0x01	; 1
     fa0:	6c 2f       	mov	r22, r28
     fa2:	40 e0       	ldi	r20, 0x00	; 0
     fa4:	0e 94 10 04 	call	0x820	; 0x820 <DIO_vSetPinVal>
     fa8:	86 01       	movw	r16, r12
     faa:	0c 0f       	add	r16, r28
     fac:	1d 1f       	adc	r17, r29
     fae:	84 e0       	ldi	r24, 0x04	; 4
     fb0:	f8 2e       	mov	r15, r24
     fb2:	81 e0       	ldi	r24, 0x01	; 1
     fb4:	6f 2d       	mov	r22, r15
     fb6:	0e 94 83 04 	call	0x906	; 0x906 <DIO_u8GetPinVal>
     fba:	88 23       	and	r24, r24
     fbc:	11 f4       	brne	.+4      	; 0xfc2 <KPD_u8GetPressedKey+0x4c>
     fbe:	f8 01       	movw	r30, r16
     fc0:	e0 80       	ld	r14, Z
     fc2:	81 e0       	ldi	r24, 0x01	; 1
     fc4:	6f 2d       	mov	r22, r15
     fc6:	0e 94 83 04 	call	0x906	; 0x906 <DIO_u8GetPinVal>
     fca:	88 23       	and	r24, r24
     fcc:	d1 f3       	breq	.-12     	; 0xfc2 <KPD_u8GetPressedKey+0x4c>
     fce:	c4 01       	movw	r24, r8
     fd0:	01 97       	sbiw	r24, 0x01	; 1
     fd2:	f1 f7       	brne	.-4      	; 0xfd0 <KPD_u8GetPressedKey+0x5a>
     fd4:	f3 94       	inc	r15
     fd6:	0c 5f       	subi	r16, 0xFC	; 252
     fd8:	1f 4f       	sbci	r17, 0xFF	; 255
     fda:	f8 e0       	ldi	r31, 0x08	; 8
     fdc:	ff 16       	cp	r15, r31
     fde:	49 f7       	brne	.-46     	; 0xfb2 <KPD_u8GetPressedKey+0x3c>
     fe0:	81 e0       	ldi	r24, 0x01	; 1
     fe2:	6b 2d       	mov	r22, r11
     fe4:	41 e0       	ldi	r20, 0x01	; 1
     fe6:	0e 94 10 04 	call	0x820	; 0x820 <DIO_vSetPinVal>
     fea:	21 96       	adiw	r28, 0x01	; 1
     fec:	c4 30       	cpi	r28, 0x04	; 4
     fee:	d1 05       	cpc	r29, r1
     ff0:	a9 f6       	brne	.-86     	; 0xf9c <KPD_u8GetPressedKey+0x26>
     ff2:	8e 2d       	mov	r24, r14
     ff4:	df 91       	pop	r29
     ff6:	cf 91       	pop	r28
     ff8:	1f 91       	pop	r17
     ffa:	0f 91       	pop	r16
     ffc:	ff 90       	pop	r15
     ffe:	ef 90       	pop	r14
    1000:	df 90       	pop	r13
    1002:	cf 90       	pop	r12
    1004:	bf 90       	pop	r11
    1006:	9f 90       	pop	r9
    1008:	8f 90       	pop	r8
    100a:	08 95       	ret

0000100c <KPD_vInit>:
    100c:	81 e0       	ldi	r24, 0x01	; 1
    100e:	6f e0       	ldi	r22, 0x0F	; 15
    1010:	0e 94 a3 04 	call	0x946	; 0x946 <DIO_vSetPortDir>
    1014:	81 e0       	ldi	r24, 0x01	; 1
    1016:	6f ef       	ldi	r22, 0xFF	; 255
    1018:	0e 94 b4 04 	call	0x968	; 0x968 <DIO_vSetPortVal>
    101c:	08 95       	ret

0000101e <main>:
    101e:	ef 92       	push	r14
    1020:	ff 92       	push	r15
    1022:	0f 93       	push	r16
    1024:	1f 93       	push	r17
    1026:	0e 94 d7 04 	call	0x9ae	; 0x9ae <MADC_vInit>
    102a:	81 e0       	ldi	r24, 0x01	; 1
    102c:	6f ef       	ldi	r22, 0xFF	; 255
    102e:	0e 94 a3 04 	call	0x946	; 0x946 <DIO_vSetPortDir>
    1032:	80 e0       	ldi	r24, 0x00	; 0
    1034:	0e 94 e2 04 	call	0x9c4	; 0x9c4 <MADC_u16AnalogRead>
    1038:	a0 e0       	ldi	r26, 0x00	; 0
    103a:	b0 e0       	ldi	r27, 0x00	; 0
    103c:	bc 01       	movw	r22, r24
    103e:	cd 01       	movw	r24, r26
    1040:	0e 94 2f 01 	call	0x25e	; 0x25e <__floatunsisf>
    1044:	40 e0       	ldi	r20, 0x00	; 0
    1046:	50 e0       	ldi	r21, 0x00	; 0
    1048:	23 eb       	ldi	r18, 0xB3	; 179
    104a:	34 e0       	ldi	r19, 0x04	; 4
    104c:	00 e0       	ldi	r16, 0x00	; 0
    104e:	10 e0       	ldi	r17, 0x00	; 0
    1050:	e8 e0       	ldi	r30, 0x08	; 8
    1052:	ee 2e       	mov	r14, r30
    1054:	f1 2c       	mov	r15, r1
    1056:	0e 94 ef 04 	call	0x9de	; 0x9de <MADC_u8Map>
    105a:	e8 2e       	mov	r14, r24
    105c:	ff 24       	eor	r15, r15
    105e:	10 e0       	ldi	r17, 0x00	; 0
    1060:	06 c0       	rjmp	.+12     	; 0x106e <main+0x50>
    1062:	81 e0       	ldi	r24, 0x01	; 1
    1064:	61 2f       	mov	r22, r17
    1066:	41 e0       	ldi	r20, 0x01	; 1
    1068:	0e 94 10 04 	call	0x820	; 0x820 <DIO_vSetPinVal>
    106c:	1f 5f       	subi	r17, 0xFF	; 255
    106e:	81 2f       	mov	r24, r17
    1070:	90 e0       	ldi	r25, 0x00	; 0
    1072:	8e 15       	cp	r24, r14
    1074:	9f 05       	cpc	r25, r15
    1076:	e8 f6       	brcc	.-70     	; 0x1032 <main+0x14>
    1078:	f4 cf       	rjmp	.-24     	; 0x1062 <main+0x44>

0000107a <__udivmodhi4>:
    107a:	aa 1b       	sub	r26, r26
    107c:	bb 1b       	sub	r27, r27
    107e:	51 e1       	ldi	r21, 0x11	; 17
    1080:	07 c0       	rjmp	.+14     	; 0x1090 <__udivmodhi4_ep>

00001082 <__udivmodhi4_loop>:
    1082:	aa 1f       	adc	r26, r26
    1084:	bb 1f       	adc	r27, r27
    1086:	a6 17       	cp	r26, r22
    1088:	b7 07       	cpc	r27, r23
    108a:	10 f0       	brcs	.+4      	; 0x1090 <__udivmodhi4_ep>
    108c:	a6 1b       	sub	r26, r22
    108e:	b7 0b       	sbc	r27, r23

00001090 <__udivmodhi4_ep>:
    1090:	88 1f       	adc	r24, r24
    1092:	99 1f       	adc	r25, r25
    1094:	5a 95       	dec	r21
    1096:	a9 f7       	brne	.-22     	; 0x1082 <__udivmodhi4_loop>
    1098:	80 95       	com	r24
    109a:	90 95       	com	r25
    109c:	bc 01       	movw	r22, r24
    109e:	cd 01       	movw	r24, r26
    10a0:	08 95       	ret

000010a2 <__divmodsi4>:
    10a2:	97 fb       	bst	r25, 7
    10a4:	09 2e       	mov	r0, r25
    10a6:	05 26       	eor	r0, r21
    10a8:	0e d0       	rcall	.+28     	; 0x10c6 <__divmodsi4_neg1>
    10aa:	57 fd       	sbrc	r21, 7
    10ac:	04 d0       	rcall	.+8      	; 0x10b6 <__divmodsi4_neg2>
    10ae:	14 d0       	rcall	.+40     	; 0x10d8 <__udivmodsi4>
    10b0:	0a d0       	rcall	.+20     	; 0x10c6 <__divmodsi4_neg1>
    10b2:	00 1c       	adc	r0, r0
    10b4:	38 f4       	brcc	.+14     	; 0x10c4 <__divmodsi4_exit>

000010b6 <__divmodsi4_neg2>:
    10b6:	50 95       	com	r21
    10b8:	40 95       	com	r20
    10ba:	30 95       	com	r19
    10bc:	21 95       	neg	r18
    10be:	3f 4f       	sbci	r19, 0xFF	; 255
    10c0:	4f 4f       	sbci	r20, 0xFF	; 255
    10c2:	5f 4f       	sbci	r21, 0xFF	; 255

000010c4 <__divmodsi4_exit>:
    10c4:	08 95       	ret

000010c6 <__divmodsi4_neg1>:
    10c6:	f6 f7       	brtc	.-4      	; 0x10c4 <__divmodsi4_exit>
    10c8:	90 95       	com	r25
    10ca:	80 95       	com	r24
    10cc:	70 95       	com	r23
    10ce:	61 95       	neg	r22
    10d0:	7f 4f       	sbci	r23, 0xFF	; 255
    10d2:	8f 4f       	sbci	r24, 0xFF	; 255
    10d4:	9f 4f       	sbci	r25, 0xFF	; 255
    10d6:	08 95       	ret

000010d8 <__udivmodsi4>:
    10d8:	a1 e2       	ldi	r26, 0x21	; 33
    10da:	1a 2e       	mov	r1, r26
    10dc:	aa 1b       	sub	r26, r26
    10de:	bb 1b       	sub	r27, r27
    10e0:	fd 01       	movw	r30, r26
    10e2:	0d c0       	rjmp	.+26     	; 0x10fe <__udivmodsi4_ep>

000010e4 <__udivmodsi4_loop>:
    10e4:	aa 1f       	adc	r26, r26
    10e6:	bb 1f       	adc	r27, r27
    10e8:	ee 1f       	adc	r30, r30
    10ea:	ff 1f       	adc	r31, r31
    10ec:	a2 17       	cp	r26, r18
    10ee:	b3 07       	cpc	r27, r19
    10f0:	e4 07       	cpc	r30, r20
    10f2:	f5 07       	cpc	r31, r21
    10f4:	20 f0       	brcs	.+8      	; 0x10fe <__udivmodsi4_ep>
    10f6:	a2 1b       	sub	r26, r18
    10f8:	b3 0b       	sbc	r27, r19
    10fa:	e4 0b       	sbc	r30, r20
    10fc:	f5 0b       	sbc	r31, r21

000010fe <__udivmodsi4_ep>:
    10fe:	66 1f       	adc	r22, r22
    1100:	77 1f       	adc	r23, r23
    1102:	88 1f       	adc	r24, r24
    1104:	99 1f       	adc	r25, r25
    1106:	1a 94       	dec	r1
    1108:	69 f7       	brne	.-38     	; 0x10e4 <__udivmodsi4_loop>
    110a:	60 95       	com	r22
    110c:	70 95       	com	r23
    110e:	80 95       	com	r24
    1110:	90 95       	com	r25
    1112:	9b 01       	movw	r18, r22
    1114:	ac 01       	movw	r20, r24
    1116:	bd 01       	movw	r22, r26
    1118:	cf 01       	movw	r24, r30
    111a:	08 95       	ret

0000111c <__prologue_saves__>:
    111c:	2f 92       	push	r2
    111e:	3f 92       	push	r3
    1120:	4f 92       	push	r4
    1122:	5f 92       	push	r5
    1124:	6f 92       	push	r6
    1126:	7f 92       	push	r7
    1128:	8f 92       	push	r8
    112a:	9f 92       	push	r9
    112c:	af 92       	push	r10
    112e:	bf 92       	push	r11
    1130:	cf 92       	push	r12
    1132:	df 92       	push	r13
    1134:	ef 92       	push	r14
    1136:	ff 92       	push	r15
    1138:	0f 93       	push	r16
    113a:	1f 93       	push	r17
    113c:	cf 93       	push	r28
    113e:	df 93       	push	r29
    1140:	cd b7       	in	r28, 0x3d	; 61
    1142:	de b7       	in	r29, 0x3e	; 62
    1144:	ca 1b       	sub	r28, r26
    1146:	db 0b       	sbc	r29, r27
    1148:	0f b6       	in	r0, 0x3f	; 63
    114a:	f8 94       	cli
    114c:	de bf       	out	0x3e, r29	; 62
    114e:	0f be       	out	0x3f, r0	; 63
    1150:	cd bf       	out	0x3d, r28	; 61
    1152:	09 94       	ijmp

00001154 <__epilogue_restores__>:
    1154:	2a 88       	ldd	r2, Y+18	; 0x12
    1156:	39 88       	ldd	r3, Y+17	; 0x11
    1158:	48 88       	ldd	r4, Y+16	; 0x10
    115a:	5f 84       	ldd	r5, Y+15	; 0x0f
    115c:	6e 84       	ldd	r6, Y+14	; 0x0e
    115e:	7d 84       	ldd	r7, Y+13	; 0x0d
    1160:	8c 84       	ldd	r8, Y+12	; 0x0c
    1162:	9b 84       	ldd	r9, Y+11	; 0x0b
    1164:	aa 84       	ldd	r10, Y+10	; 0x0a
    1166:	b9 84       	ldd	r11, Y+9	; 0x09
    1168:	c8 84       	ldd	r12, Y+8	; 0x08
    116a:	df 80       	ldd	r13, Y+7	; 0x07
    116c:	ee 80       	ldd	r14, Y+6	; 0x06
    116e:	fd 80       	ldd	r15, Y+5	; 0x05
    1170:	0c 81       	ldd	r16, Y+4	; 0x04
    1172:	1b 81       	ldd	r17, Y+3	; 0x03
    1174:	aa 81       	ldd	r26, Y+2	; 0x02
    1176:	b9 81       	ldd	r27, Y+1	; 0x01
    1178:	ce 0f       	add	r28, r30
    117a:	d1 1d       	adc	r29, r1
    117c:	0f b6       	in	r0, 0x3f	; 63
    117e:	f8 94       	cli
    1180:	de bf       	out	0x3e, r29	; 62
    1182:	0f be       	out	0x3f, r0	; 63
    1184:	cd bf       	out	0x3d, r28	; 61
    1186:	ed 01       	movw	r28, r26
    1188:	08 95       	ret

0000118a <_exit>:
    118a:	f8 94       	cli

0000118c <__stop_program>:
    118c:	ff cf       	rjmp	.-2      	; 0x118c <__stop_program>
